Certificate:
    Data:
        Version: 3 (0x2)
        Serial Number:
            a7:fb:03:f0:69:a9:7a:82
        Signature Algorithm: sha1WithRSAEncryption
        Issuer: C=EU, O=Testing Organization, CN=UNICORE TEST CA
        Validity
            Not Before: Dec 10 22:20:06 2010 GMT
            Not After : Dec  9 22:20:06 2013 GMT
        Subject: C=EU, O=Testing Organization, CN=UNICORE TEST CA
        Subject Public Key Info:
            Public Key Algorithm: rsaEncryption
                Public-Key: (2048 bit)
                Modulus:
                    00:df:b2:19:d3:88:cb:c1:c8:2d:b3:c2:7d:1c:e1:
                    12:0d:3c:a3:39:bc:4b:35:6f:c3:6e:0d:8b:62:6b:
                    6f:48:c5:2a:ee:00:6d:a4:c0:64:c6:3c:8d:d3:16:
                    9c:4f:67:a5:fe:9b:d5:eb:f0:89:85:9f:1e:73:cc:
                    a7:56:94:ce:b6:8e:f6:9a:11:4c:ec:04:85:95:e5:
                    59:eb:02:cc:d7:17:da:1e:c8:59:cb:8b:6b:ae:c2:
                    60:32:65:6f:cd:8f:c2:01:3e:ec:14:3a:6b:5e:27:
                    5b:a9:d4:26:8a:a0:59:7d:14:da:70:4a:f8:bc:09:
                    76:60:4c:4c:c0:af:a4:1b:84:30:e5:a1:e0:7d:12:
                    44:0b:96:88:84:9e:11:09:ad:a8:48:60:5f:96:21:
                    9e:63:d9:30:36:7d:c0:0d:08:88:24:37:f8:b0:28:
                    73:00:5d:ca:e7:94:1c:25:27:fa:99:f8:f9:1b:b8:
                    27:9b:9d:6d:d6:b1:69:02:25:31:5a:b6:84:7a:52:
                    75:ea:fb:95:d4:56:a6:3b:5d:87:08:63:50:3f:a2:
                    e0:0e:9c:2f:ab:fb:fc:0f:9a:a4:f6:55:f8:0b:a4:
                    f0:5f:a6:fc:aa:67:97:dc:6e:a3:a1:2b:67:da:8d:
                    5d:34:13:ae:83:44:e8:c4:65:9a:bb:69:09:4b:20:
                    0d:51
                Exponent: 65537 (0x10001)
        X509v3 extensions:
            X509v3 Subject Key Identifier: 
                62:C0:A0:2C:2C:56:40:9C:45:9F:00:28:2E:73:AC:5C:FE:47:F4:BC
            X509v3 Authority Key Identifier: 
                keyid:62:C0:A0:2C:2C:56:40:9C:45:9F:00:28:2E:73:AC:5C:FE:47:F4:BC

            X509v3 Basic Constraints: 
                CA:TRUE
            X509v3 Key Usage: 
                Digital Signature, Non Repudiation, Certificate Sign, CRL Sign
            Netscape Cert Type: 
                SSL CA, S/MIME CA
    Signature Algorithm: sha1WithRSAEncryption
        a0:fc:ff:66:9e:55:cf:af:61:04:6e:36:f8:9e:73:99:8b:4f:
        37:cf:1b:31:3a:3e:62:d6:29:eb:a6:6e:ee:5d:b2:70:47:74:
        d3:3f:b6:14:a5:e5:8f:1c:a3:7b:26:1c:f6:d3:39:9c:74:ec:
        8e:73:9c:a7:67:45:6b:fb:c6:7d:b7:a2:e4:02:32:4b:68:41:
        71:d9:ea:7e:48:62:54:fc:ef:fb:e4:35:76:00:c0:95:32:b6:
        c7:da:98:7a:01:75:b3:af:0b:c6:cb:cc:fd:b6:f1:99:84:ed:
        72:d9:2b:97:d7:13:73:ae:03:05:69:2b:33:a7:c2:8f:d4:c1:
        6e:18:c4:9b:77:42:ce:ee:b1:f8:b3:8a:9e:49:61:c8:31:29:
        1a:ff:a3:76:8a:a6:2a:ad:68:f7:a8:58:93:ad:43:41:59:c8:
        16:8e:b4:f8:27:2a:7e:c3:50:65:19:35:a6:85:60:e4:3f:a2:
        e7:fc:aa:24:8e:74:11:a2:af:75:e3:79:35:7b:d5:ec:dc:74:
        5d:4d:37:cc:14:05:34:c5:24:05:b9:63:42:de:36:b1:9b:ab:
        98:e3:2e:7b:a3:ac:1d:00:6c:b2:26:63:8a:59:0b:e0:c9:c2:
        93:9f:52:0c:21:0b:c0:1c:8d:c8:db:07:dc:a2:77:a5:ec:32:
        70:a7:3a:a4
-----BEGIN CERTIFICATE-----
MIIDfzCCAmegAwIBAgIJAKf7A/BpqXqCMA0GCSqGSIb3DQEBBQUAMEYxCzAJBgNV
BAYTAkVVMR0wGwYDVQQKDBRUZXN0aW5nIE9yZ2FuaXphdGlvbjEYMBYGA1UEAwwP
VU5JQ09SRSBURVNUIENBMB4XDTEwMTIxMDIyMjAwNloXDTEzMTIwOTIyMjAwNlow
RjELMAkGA1UEBhMCRVUxHTAbBgNVBAoMFFRlc3RpbmcgT3JnYW5pemF0aW9uMRgw
FgYDVQQDDA9VTklDT1JFIFRFU1QgQ0EwggEiMA0GCSqGSIb3DQEBAQUAA4IBDwAw
ggEKAoIBAQDfshnTiMvByC2zwn0c4RINPKM5vEs1b8NuDYtia29IxSruAG2kwGTG
PI3TFpxPZ6X+m9Xr8ImFnx5zzKdWlM62jvaaEUzsBIWV5VnrAszXF9oeyFnLi2uu
wmAyZW/Nj8IBPuwUOmteJ1up1CaKoFl9FNpwSvi8CXZgTEzAr6QbhDDloeB9EkQL
loiEnhEJrahIYF+WIZ5j2TA2fcANCIgkN/iwKHMAXcrnlBwlJ/qZ+PkbuCebnW3W
sWkCJTFatoR6UnXq+5XUVqY7XYcIY1A/ouAOnC+r+/wPmqT2VfgLpPBfpvyqZ5fc
bqOhK2fajV00E66DROjEZZq7aQlLIA1RAgMBAAGjcDBuMB0GA1UdDgQWBBRiwKAs
LFZAnEWfACguc6xc/kf0vDAfBgNVHSMEGDAWgBRiwKAsLFZAnEWfACguc6xc/kf0
vDAMBgNVHRMEBTADAQH/MAsGA1UdDwQEAwIBxjARBglghkgBhvhCAQEEBAMCAQYw
DQYJKoZIhvcNAQEFBQADggEBAKD8/2aeVc+vYQRuNviec5mLTzfPGzE6PmLWKeum
bu5dsnBHdNM/thSl5Y8co3smHPbTOZx07I5znKdnRWv7xn23ouQCMktoQXHZ6n5I
YlT87/vkNXYAwJUytsfamHoBdbOvC8bLzP228ZmE7XLZK5fXE3OuAwVpKzOnwo/U
wW4YxJt3Qs7usfizip5JYcgxKRr/o3aKpiqtaPeoWJOtQ0FZyBaOtPgnKn7DUGUZ
NaaFYOQ/ouf8qiSOdBGir3XjeTV71ezcdF1NN8wUBTTFJAW5Y0LeNrGbq5jjLnuj
rB0AbLImY4pZC+DJwpOfUgwhC8AcjcjbB9yid6XsMnCnOqQ=
-----END CERTIFICATE-----
