Certificate:
    Data:
        Version: 3 (0x2)
        Serial Number:
            a7:fb:03:f0:69:a9:7a:83
        Signature Algorithm: sha1WithRSAEncryption
        Issuer: C=EU, O=Testing Organization, CN=UNICORE TEST CA
        Validity
            Not Before: Dec 10 22:23:47 2010 GMT
            Not After : Dec  5 22:23:47 2030 GMT
        Subject: C=EU, L=Testing City, O=Testing Organization, CN=PDPTest Server
        Subject Public Key Info:
            Public Key Algorithm: rsaEncryption
                Public-Key: (2048 bit)
                Modulus:
                    00:c4:eb:3b:f9:36:ea:b9:07:75:fb:09:55:10:14:
                    1f:52:cb:5a:49:08:d1:4e:6e:dd:8c:31:c5:c9:34:
                    1c:eb:78:7f:83:88:3b:12:18:d8:99:b6:50:7c:bd:
                    81:81:d4:7e:5b:01:24:1d:34:fa:d7:d2:42:2f:3f:
                    3d:8d:08:0c:ad:8e:16:7f:01:49:af:b9:ad:36:95:
                    c8:8b:8d:ba:70:87:69:47:e0:81:25:2b:ce:47:1f:
                    46:dc:80:47:19:5b:6f:3e:c2:1f:ba:c4:17:45:56:
                    18:76:1f:29:08:8f:a9:52:bf:9d:5b:90:15:4c:bc:
                    12:9b:95:ae:78:dd:26:89:10:ae:b1:60:83:57:a5:
                    33:7e:75:df:b6:a7:f2:b9:4b:28:12:cf:c1:1f:f2:
                    59:e9:63:d9:22:f7:af:3e:6c:b1:80:37:a5:70:27:
                    4c:01:0b:8e:57:59:6b:39:6c:9d:18:1a:4e:20:d7:
                    7e:b6:c1:9d:d3:8a:2f:95:76:0a:eb:3e:73:de:e1:
                    4e:be:6d:a6:ff:4b:12:c3:8a:2c:9e:e6:43:02:d4:
                    e8:7f:94:0e:b9:65:5b:ab:d8:ce:4e:94:a4:82:fb:
                    f4:89:f5:4b:75:bb:36:93:00:fd:b3:7e:0b:2e:12:
                    13:47:fb:5a:57:95:dd:6d:07:fc:8a:6e:41:81:87:
                    af:75
                Exponent: 65537 (0x10001)
        X509v3 extensions:
            X509v3 Basic Constraints: 
                CA:FALSE
            Netscape Cert Type: 
                SSL Client, SSL Server, S/MIME, Object Signing
            X509v3 Key Usage: 
                Digital Signature, Non Repudiation, Key Encipherment, Data Encipherment
            Netscape Comment: 
                Certificate generated for UNICORE TESTING
            X509v3 Subject Key Identifier: 
                14:AC:D1:BB:DF:93:84:1B:73:00:43:49:3E:5E:92:87:44:92:9D:B0
            X509v3 Authority Key Identifier: 
                keyid:62:C0:A0:2C:2C:56:40:9C:45:9F:00:28:2E:73:AC:5C:FE:47:F4:BC

    Signature Algorithm: sha1WithRSAEncryption
        3f:95:f4:e7:13:97:44:37:ad:40:9a:1e:d9:7d:49:c5:16:8e:
        7e:a8:c2:58:23:db:9e:cd:ec:a8:36:75:d5:4c:4d:71:5c:be:
        49:ed:c3:d6:30:3f:ba:0a:c8:f1:5b:f9:b0:ac:dd:47:6b:5c:
        e6:ca:7e:7a:20:67:0c:35:50:09:0b:87:6b:91:79:f5:e7:e9:
        5f:a9:18:42:8f:bf:b9:24:de:ce:0c:38:19:cf:c0:53:ef:7e:
        1e:17:13:e6:85:e6:0f:e9:92:3f:0c:a5:9f:e2:01:9f:bf:0d:
        29:f1:a0:15:d0:78:02:92:b7:5e:61:45:dc:67:d2:99:a2:49:
        62:96:f8:1f:5b:97:b0:58:5e:df:c6:e9:1d:d0:bc:4f:c1:d0:
        2b:a8:de:a7:8e:f4:74:27:2d:bf:c7:fe:8a:48:ef:12:1d:3c:
        cf:a5:03:e0:9d:38:80:c7:32:31:3f:d3:90:dc:f0:38:0e:2a:
        58:b4:4c:32:f4:b2:26:64:0a:6d:8e:aa:29:95:33:c8:fa:58:
        e1:c4:91:11:6d:13:4e:53:e5:b9:a4:16:a6:a1:67:b2:c5:e5:
        df:48:3c:b0:a1:bc:65:dd:91:0f:8b:3f:41:e8:70:8b:87:f6:
        a8:35:b2:1a:1c:7d:18:54:4f:5b:c9:37:f1:b8:a7:e3:88:59:
        5d:81:55:5e
-----BEGIN CERTIFICATE-----
MIIDzjCCAragAwIBAgIJAKf7A/BpqXqDMA0GCSqGSIb3DQEBBQUAMEYxCzAJBgNV
BAYTAkVVMR0wGwYDVQQKDBRUZXN0aW5nIE9yZ2FuaXphdGlvbjEYMBYGA1UEAwwP
VU5JQ09SRSBURVNUIENBMB4XDTEwMTIxMDIyMjM0N1oXDTMwMTIwNTIyMjM0N1ow
XDELMAkGA1UEBhMCRVUxFTATBgNVBAcMDFRlc3RpbmcgQ2l0eTEdMBsGA1UECgwU
VGVzdGluZyBPcmdhbml6YXRpb24xFzAVBgNVBAMMDlBEUFRlc3QgU2VydmVyMIIB
IjANBgkqhkiG9w0BAQEFAAOCAQ8AMIIBCgKCAQEAxOs7+TbquQd1+wlVEBQfUsta
SQjRTm7djDHFyTQc63h/g4g7EhjYmbZQfL2BgdR+WwEkHTT619JCLz89jQgMrY4W
fwFJr7mtNpXIi426cIdpR+CBJSvORx9G3IBHGVtvPsIfusQXRVYYdh8pCI+pUr+d
W5AVTLwSm5WueN0miRCusWCDV6UzfnXftqfyuUsoEs/BH/JZ6WPZIvevPmyxgDel
cCdMAQuOV1lrOWydGBpOINd+tsGd04ovlXYK6z5z3uFOvm2m/0sSw4osnuZDAtTo
f5QOuWVbq9jOTpSkgvv0ifVLdbs2kwD9s34LLhITR/taV5XdbQf8im5BgYevdQID
AQABo4GoMIGlMAkGA1UdEwQCMAAwEQYJYIZIAYb4QgEBBAQDAgTwMAsGA1UdDwQE
AwIE8DA4BglghkgBhvhCAQ0EKxYpQ2VydGlmaWNhdGUgZ2VuZXJhdGVkIGZvciBV
TklDT1JFIFRFU1RJTkcwHQYDVR0OBBYEFBSs0bvfk4QbcwBDST5ekodEkp2wMB8G
A1UdIwQYMBaAFGLAoCwsVkCcRZ8AKC5zrFz+R/S8MA0GCSqGSIb3DQEBBQUAA4IB
AQA/lfTnE5dEN61Amh7ZfUnFFo5+qMJYI9uezeyoNnXVTE1xXL5J7cPWMD+6Csjx
W/mwrN1Ha1zmyn56IGcMNVAJC4drkXn15+lfqRhCj7+5JN7ODDgZz8BT734eFxPm
heYP6ZI/DKWf4gGfvw0p8aAV0HgCkrdeYUXcZ9KZoklilvgfW5ewWF7fxukd0LxP
wdArqN6njvR0Jy2/x/6KSO8SHTzPpQPgnTiAxzIxP9OQ3PA4DipYtEwy9LImZApt
jqoplTPI+ljhxJERbRNOU+W5pBamoWeyxeXfSDywobxl3ZEPiz9B6HCLh/aoNbIa
HH0YVE9byTfxuKfjiFldgVVe
-----END CERTIFICATE-----
