Certificate:
    Data:
        Version: 3 (0x2)
        Serial Number: 3 (0x3)
        Signature Algorithm: sha224WithRSAEncryption
        Issuer: C=EU, O=EMITest, CN=The root CA1
        Validity
            Not Before: Apr 23 08:57:01 2012 GMT
            Not After : Oct 16 08:57:01 2112 GMT
        Subject: C=EU, O=EMITest, CN=TestUserWithSHA224
        Subject Public Key Info:
            Public Key Algorithm: rsaEncryption
                Public-Key: (1024 bit)
                Modulus:
                    00:d3:42:c7:09:79:b1:7c:4c:58:e0:a8:4a:ea:70:
                    13:34:4c:eb:1b:02:77:f6:2a:d4:79:3e:77:d4:e4:
                    4a:68:9f:17:91:d4:d7:d3:82:10:59:5e:75:e1:57:
                    76:b0:ec:5d:cb:da:60:9b:66:9a:08:bc:22:5c:e4:
                    10:44:d3:20:c9:7a:0e:52:17:8f:63:2f:16:50:9c:
                    cd:67:53:f6:8d:aa:41:59:c3:67:71:56:86:3b:cf:
                    4c:95:62:ad:b3:24:1b:a2:3d:f5:8a:c9:60:82:1d:
                    0d:61:5f:17:a0:c2:8e:0a:69:f9:cd:c2:75:ae:d3:
                    6c:34:e5:00:a6:ed:17:79:e1
                Exponent: 65537 (0x10001)
        X509v3 extensions:
            X509v3 Basic Constraints: 
                CA:FALSE
            Netscape Cert Type: 
                SSL Client, SSL Server, S/MIME, Object Signing
            X509v3 Key Usage: 
                Digital Signature, Non Repudiation, Key Encipherment, Data Encipherment
            Netscape Comment: 
                Certificate generated by the EMITest CA1
            X509v3 Subject Key Identifier: 
                C5:72:8C:0D:7D:ED:41:48:90:46:31:E9:1A:41:D0:0D:7D:40:17:B7
            X509v3 Authority Key Identifier: 
                keyid:50:FD:B6:76:CA:B5:9C:09:C3:91:20:0A:FE:54:7A:11:67:59:B8:0C

    Signature Algorithm: sha224WithRSAEncryption
        5b:50:1b:72:f6:20:a9:77:a3:16:8a:2a:8b:e1:38:6b:da:11:
        eb:1c:25:e6:61:6b:2a:26:bd:fb:b2:d6:57:d4:86:fc:15:d7:
        c5:7d:8f:da:bd:c4:e8:41:4f:cc:33:9e:ec:29:51:3b:3e:f3:
        b3:32:59:56:c2:d6:e0:1b:13:01:d0:df:90:c2:f3:0a:cc:d8:
        ba:45:b3:06:00:97:06:ba:a7:bd:9f:33:1d:77:74:7b:d3:3a:
        90:cc:dd:a7:75:c9:f7:3a:86:94:71:04:0a:2e:c1:d6:0d:c2:
        72:2f:37:a0:bb:fd:b9:1e:02:0f:20:c9:4b:d6:12:ee:ac:15:
        76:d9
-----BEGIN CERTIFICATE-----
MIICkjCCAfugAwIBAgIBAzANBgkqhkiG9w0BAQ4FADA2MQswCQYDVQQGEwJFVTEQ
MA4GA1UEChMHRU1JVGVzdDEVMBMGA1UEAxMMVGhlIHJvb3QgQ0ExMCAXDTEyMDQy
MzA4NTcwMVoYDzIxMTIxMDE2MDg1NzAxWjA8MQswCQYDVQQGEwJFVTEQMA4GA1UE
ChMHRU1JVGVzdDEbMBkGA1UEAxMSVGVzdFVzZXJXaXRoU0hBMjI0MIGfMA0GCSqG
SIb3DQEBAQUAA4GNADCBiQKBgQDTQscJebF8TFjgqErqcBM0TOsbAnf2KtR5PnfU
5EponxeR1NfTghBZXnXhV3aw7F3L2mCbZpoIvCJc5BBE0yDJeg5SF49jLxZQnM1n
U/aNqkFZw2dxVoY7z0yVYq2zJBuiPfWKyWCCHQ1hXxegwo4KafnNwnWu02w05QCm
7Rd54QIDAQABo4GnMIGkMAkGA1UdEwQCMAAwEQYJYIZIAYb4QgEBBAQDAgTwMAsG
A1UdDwQEAwIE8DA3BglghkgBhvhCAQ0EKhYoQ2VydGlmaWNhdGUgZ2VuZXJhdGVk
IGJ5IHRoZSBFTUlUZXN0IENBMTAdBgNVHQ4EFgQUxXKMDX3tQUiQRjHpGkHQDX1A
F7cwHwYDVR0jBBgwFoAUUP22dsq1nAnDkSAK/lR6EWdZuAwwDQYJKoZIhvcNAQEO
BQADgYEAW1AbcvYgqXejFooqi+E4a9oR6xwl5mFrKia9+7LWV9SG/BXXxX2P2r3E
6EFPzDOe7ClROz7zszJZVsLW4BsTAdDfkMLzCszYukWzBgCXBrqnvZ8zHXd0e9M6
kMzdp3XJ9zqGlHEECi7B1g3Cci83oLv9uR4CDyDJS9YS7qwVdtk=
-----END CERTIFICATE-----
-----BEGIN ENCRYPTED PRIVATE KEY-----
MIICxjBABgkqhkiG9w0BBQ0wMzAbBgkqhkiG9w0BBQwwDgQIcBPnUdHw2osCAggA
MBQGCCqGSIb3DQMHBAjAqONoMcxbBwSCAoCkGdepgOSD6eC4iZuXYZoSw9rNeeIh
XL2xrz8NRiaxNlHzw8ymK2VZN/05u7AUjmhT2kpdIRBpIjnascPYF9ccO79OSUXh
7olh77yWLBqizzfFVm/TaG/nhIwohu3ubY6H4oUwNJll01/1t1Kmu8GOkmosdbc0
1V7Tl6zObUPvNMrGbOz5aj/ymoacF6KvLFPiRz8lwetAoyjJa46rKgVO8shuxYua
MYMfDiEAvoYXJ0dS+jtjOuF2xXV7dwRzYP63otWHgXdwEtNvwmFL6V6dFL/Yk1N5
j6aNRDSyOhlqfw5Hs4GPKqnfDiuIvGgRPBebobOD0OOhGNeVxGldjoEZWS8K2wRH
DhoJK9OCoE5ZvmQzIf2/wW/PBflN4+4ia49x485iM8/VouMvlyzb6XqM+7n6bdgw
0UFFpy/kGqlIw4i/Q7JRixRCAjqUOK60uVaRlES9Kf7GDEoq0kqkfvOHskQnWMES
yYkpp3TbIhIepHbBOpXQY1JgIdIz17J2vNvO3wgKH6tePg3cVBrTfFPTry/qM2/h
8qqdFw61WefHZkqdW1V5QRZXXaWR3PDjMc6Du8WsUXc8ahmbUc3FKlxBXU+kkLs5
kuqUvvrHgT2rBWV2X+BWLj8kzvj5ThaUrqfVvx3RUPdvsTqJxKucyPg73R4x7f5q
fyXWhBkjOlPFmwDhOej174j+AZBgyA7zTaQKNYf9xAwFCq5jT+kj/nVmv8pwaQSw
6lEXmZ/uE/l3qJ0eiHPdSYVfe2oyFT8pDcSpHwMpURTmNpDn5pysZ9nCdNhJ2A20
7MkcfkVH67WQMVDEv68NrJxe8q2KR7OTQI5rjcPb3hhN6rp+Qcse+wEJ
-----END ENCRYPTED PRIVATE KEY-----
