Certificate:
    Data:
        Version: 3 (0x2)
        Serial Number:
            b1:5b:63:6d:fc:45:43:1d
    Signature Algorithm: sha224WithRSAEncryption
        Issuer: C=EU, O=EMITest, CN=The root CA1
        Validity
            Not Before: Feb 20 22:40:33 2019 GMT
            Not After : Feb 19 22:40:33 2024 GMT
        Subject: C=EU, O=EMITest, CN=TestUserWithSHA224
        Subject Public Key Info:
            Public Key Algorithm: rsaEncryption
                Public-Key: (2048 bit)
                Modulus:
                    00:b1:85:60:ed:fe:b2:57:7f:46:e6:6d:12:2c:6c:
                    0b:01:04:f3:aa:21:ec:d4:78:6c:fe:b2:7a:c0:e7:
                    0e:9b:99:0b:14:09:af:7d:88:7f:28:f2:6a:cb:4c:
                    f2:6b:c6:02:4d:d3:ce:29:08:08:69:29:f7:8c:e1:
                    f1:23:38:27:0d:f8:41:95:86:2e:e3:b6:d8:24:49:
                    3f:c6:17:a7:6b:86:ec:13:2d:83:84:c2:67:e5:ab:
                    1d:4c:7d:8d:87:78:d6:fe:99:16:6a:c9:ac:b2:d0:
                    4d:af:fc:32:66:f0:99:23:e4:01:fa:44:f2:3d:08:
                    7b:e6:0d:b1:4a:5f:11:7f:1a:ea:c0:7e:bf:22:41:
                    04:85:75:f3:4e:c0:a3:57:6d:07:d7:fc:ca:34:14:
                    26:cf:d3:76:34:6a:f4:9e:86:62:79:e7:cb:cd:98:
                    06:f8:62:6b:75:05:80:4b:82:2c:54:75:08:01:c5:
                    fe:d9:29:ea:81:fa:bf:a2:73:e2:88:a2:6e:6a:1c:
                    00:88:9e:74:74:47:a8:87:70:4a:92:fc:19:de:ca:
                    24:91:52:a4:2c:59:80:5f:c7:e3:c2:f4:e6:ef:14:
                    f4:49:1d:4d:1e:1c:bb:35:37:07:18:48:17:f4:87:
                    65:62:e2:a7:ed:7a:8b:7c:43:3a:af:20:0d:26:23:
                    da:63
                Exponent: 65537 (0x10001)
        X509v3 extensions:
            X509v3 Basic Constraints: 
                CA:FALSE
            Netscape Cert Type: 
                SSL Client, SSL Server, S/MIME, Object Signing
            X509v3 Key Usage: 
                Digital Signature, Non Repudiation, Key Encipherment, Data Encipherment
            X509v3 Subject Key Identifier: 
                A6:8C:8C:1E:7D:80:B6:9E:29:6B:6C:5B:59:E7:2F:A5:88:F4:84:18
            X509v3 Authority Key Identifier: 
                keyid:5E:A9:D0:F0:A6:17:64:AD:66:67:E5:1D:EC:E0:8E:D0:70:2C:76:68

    Signature Algorithm: sha224WithRSAEncryption
         52:6a:c7:22:a8:58:3d:cb:9c:47:72:e7:f1:71:81:2c:73:28:
         5e:f3:aa:77:99:4f:90:58:54:15:fd:83:7d:b9:c3:5b:c9:b1:
         1e:17:17:6d:bd:24:72:93:0c:33:81:68:1c:34:93:a6:4b:56:
         f2:dc:67:5f:66:d6:75:a7:6b:1e:86:7c:58:89:e3:f5:03:b6:
         dd:a1:8c:24:76:24:92:d8:92:7b:44:b9:ff:bd:d6:fc:b6:06:
         88:e6:a6:61:6d:40:83:d4:1b:df:27:44:9b:73:f2:4e:b4:54:
         9d:12:0e:11:ba:ef:f8:b9:2e:49:f5:c9:ed:4c:bc:d1:36:0e:
         5d:26:60:1c:06:c4:7d:ae:de:e8:9d:93:13:f3:f0:f9:ca:4a:
         f3:15:e8:ba:c3:df:40:31:ac:87:df:90:48:fe:6b:49:18:6e:
         f0:04:d7:8e:34:88:e4:14:b0:e9:01:64:ad:4b:a5:57:c5:88:
         e8:8b:97:5a:03:71:e1:96:51:e9:88:a6:7a:d5:c1:a4:c6:43:
         70:ca:8f:e7:3f:cd:04:dc:eb:d5:eb:07:d8:55:84:e5:ea:fb:
         50:72:e3:3c:05:4d:ff:1f:95:5a:68:29:f2:7a:23:39:e0:9d:
         ad:10:b5:db:da:ba:8e:e3:be:fb:f9:3d:e3:83:53:b6:de:5e:
         94:8f:fc:f1
-----BEGIN CERTIFICATE-----
MIIDYjCCAkqgAwIBAgIJALFbY238RUMdMA0GCSqGSIb3DQEBDgUAMDYxCzAJBgNV
BAYTAkVVMRAwDgYDVQQKDAdFTUlUZXN0MRUwEwYDVQQDDAxUaGUgcm9vdCBDQTEw
HhcNMTkwMjIwMjI0MDMzWhcNMjQwMjE5MjI0MDMzWjA8MQswCQYDVQQGEwJFVTEQ
MA4GA1UECgwHRU1JVGVzdDEbMBkGA1UEAwwSVGVzdFVzZXJXaXRoU0hBMjI0MIIB
IjANBgkqhkiG9w0BAQEFAAOCAQ8AMIIBCgKCAQEAsYVg7f6yV39G5m0SLGwLAQTz
qiHs1Hhs/rJ6wOcOm5kLFAmvfYh/KPJqy0zya8YCTdPOKQgIaSn3jOHxIzgnDfhB
lYYu47bYJEk/xhena4bsEy2DhMJn5asdTH2Nh3jW/pkWasmsstBNr/wyZvCZI+QB
+kTyPQh75g2xSl8RfxrqwH6/IkEEhXXzTsCjV20H1/zKNBQmz9N2NGr0noZieefL
zZgG+GJrdQWAS4IsVHUIAcX+2Snqgfq/onPiiKJuahwAiJ50dEeoh3BKkvwZ3sok
kVKkLFmAX8fjwvTm7xT0SR1NHhy7NTcHGEgX9IdlYuKn7XqLfEM6ryANJiPaYwID
AQABo20wazAJBgNVHRMEAjAAMBEGCWCGSAGG+EIBAQQEAwIE8DALBgNVHQ8EBAMC
BPAwHQYDVR0OBBYEFKaMjB59gLaeKWtsW1nnL6WI9IQYMB8GA1UdIwQYMBaAFF6p
0PCmF2StZmflHezgjtBwLHZoMA0GCSqGSIb3DQEBDgUAA4IBAQBSasciqFg9y5xH
cufxcYEscyhe86p3mU+QWFQV/YN9ucNbybEeFxdtvSRykwwzgWgcNJOmS1by3Gdf
ZtZ1p2sehnxYieP1A7bdoYwkdiSS2JJ7RLn/vdb8tgaI5qZhbUCD1BvfJ0Sbc/JO
tFSdEg4Ruu/4uS5J9cntTLzRNg5dJmAcBsR9rt7onZMT8/D5ykrzFei6w99AMayH
35BI/mtJGG7wBNeONIjkFLDpAWStS6VXxYjoi5daA3HhllHpiKZ61cGkxkNwyo/n
P80E3OvV6wfYVYTl6vtQcuM8BU3/H5VaaCnyeiM54J2tELXb2rqO4777+T3jg1O2
3l6Uj/zx
-----END CERTIFICATE-----
-----BEGIN ENCRYPTED PRIVATE KEY-----
MIIFHDBOBgkqhkiG9w0BBQ0wQTApBgkqhkiG9w0BBQwwHAQIy/zuTZ/epv8CAggA
MAwGCCqGSIb3DQIJBQAwFAYIKoZIhvcNAwcECKanPU3vpqVMBIIEyL94+CqOQCXB
oWuRyDQCb6XBAQyxLeBXzPNPGZA09xlpjZ25RPS+2nKj0UIGNBDNnqO755mlxhSE
DspRtiZYHFanIMXkz+zbjGuD/kV9ReG6D8DGwivJDQEr4apFVMGciqGAojRP/aiQ
fMAMizdjaTqguybh9B2T7Vt18hHDo/kpQeqXEURlQCqTRGBd3mPjCmKhVlzz4Fpu
m7fVG1pirLKXZuJ5tWEh29d0Qu+MMzggTBgN1S4uBTuLxO4XFjisOcpgS5sS6BQi
yY1Htb4egtZAK5kxXSSmp+ekYGSACwI1IawPddw5D2qmh9OcZ4Aj+oKiG4tcUMXA
Yqn9AcGTG9S2hN6dXvHRWkJB4lc3AEacgKphyBUzuQwX2e8VZCRuzv3sZhl8sM2I
vzORRNvL4yQFoF+BX4kq9gg7e8Y///J6XsS0z7p3DE/z1UghpWuQfNHQd/VVAnEd
EVNODOCfH8rkENhl6MVFEp2mN9t8rMhZ/aMW1wfqieFxl5XvTty6QuxppjTWb5eN
TmhuoEtOceqcHyQLntPVKBFq1SRu6fymIU50Gnku3cclszjC1eV0mOUduL8/TFns
NSNjzzpglAmIVi23dHj+RebUFnUBxOsHd0/fgfaCO0swpPoTrGLw5rHVK7jsB6VB
hgjR2xCwFTPQNdFCRAUptIHwS5OgU/eIzmfpTJ9307ml5t5J+IVsy0EqOOxDTCRK
cIJyZ79Yn9uMuJTR1yMQ/Vtv+cHkjgjYv1+ImwK3v4VeW3s33aI39pVpCW/PhFYE
ak/dVif9UIwU5q1ex0bsoJKIJXBAUYTSHep6cjQzfQNbNH97b5xBs6CYyFcLJmQ5
r4v0lolV+ilRjUHRA6+3t9hZaWhkjo+JhAkarzFuwP54o6TshAJ0lS5MysHKAJxJ
qNrF/l1wmyjpacQu/oxto1FTJZ1CJIhCwhEe0B0Vn8k+l4p/xJM8DGpTZ6h/6pjv
xh95wioSVr76mRPZay9a1BtEGS6fB4ZM6wzvQid8EVK1Fu/q6+9vNs6sixahSzMz
zN6JO2oGR1NSyjAZOulT+8f+zruXsOunRbXXpNNW/GjzlpT1yysVxMnCX5sqSPey
wmE9rGvK+EiCumLIb/fsC112/8BTvkLKJMY6SPE4tT8VK72Tqw9GTj1T629vikMW
h6WEup23b8koiwYMGR9v31PkkI625coWrckO57R9RC0EIEhhuRe4nG33GKgfhaZJ
rKlC8Lp3lqUmqU7lr7P0YmWc6bKr19JzpeZ/br/4D7Vf1dXZLfKd+CziTRAmsmx7
qUHDq69WOj+vYikaQctFZNrgsL82pY4vMkvUCarwfn8z9qXzLdBFiGlD+4ML96KP
30uYK6qFea96yIYBGDoT4VJkYF7YR1JGXmROsU2ih+AnsgCoeHFW+nVcdE6eOCsK
W1yIeGb8LR1HJSoygDt2EdNZDMgAl3obXCUJWNil9rQoAOjlXsH5u5XOH8uLokjW
RY6+BzhH7aY8CYzdmSue3XXFShi0fXKGeDOa13um5WDJyASsOjVJ3mozbXTSSrzL
f5RctEMvxF1OV/qCUtnMEMjUu8hg4/jRgjP3dx/DLGL2eZZO9Rvl85DH6eNMxBWD
gXflDnakOPJqyUQhMESg2A==
-----END ENCRYPTED PRIVATE KEY-----
