Certificate:
    Data:
        Version: 3 (0x2)
        Serial Number:
            b1:5b:63:6d:fc:45:43:1f
    Signature Algorithm: sha384WithRSAEncryption
        Issuer: C=EU, O=EMITest, CN=The root CA1
        Validity
            Not Before: Feb 20 22:43:37 2019 GMT
            Not After : Feb 19 22:43:37 2024 GMT
        Subject: C=EU, O=EMITest, CN=TestUserWithSHA384
        Subject Public Key Info:
            Public Key Algorithm: rsaEncryption
                Public-Key: (2048 bit)
                Modulus:
                    00:ce:09:2b:0e:14:fe:27:66:a0:cf:71:d3:db:fb:
                    b5:db:32:4b:60:1e:53:34:0f:10:86:b4:e7:bc:15:
                    96:2f:44:71:31:cd:30:01:ac:2a:9c:86:52:77:bd:
                    e8:11:ed:6a:cd:66:cf:e0:f7:c8:04:da:9d:1d:6c:
                    65:a9:62:40:b2:c3:82:80:df:b8:da:b0:e7:ff:16:
                    f9:be:e2:10:22:c9:74:29:08:cb:4b:04:44:81:65:
                    f4:aa:df:57:a4:32:fd:6a:df:18:93:4f:c9:ee:30:
                    f9:0d:42:ef:b5:c6:73:6f:ba:de:b9:3f:94:57:2e:
                    66:7d:0f:40:9a:ee:f9:fe:e9:a6:3f:d3:40:80:26:
                    9c:69:4a:23:c7:d6:51:1d:32:12:37:34:43:2b:8e:
                    24:fc:09:f1:5c:c9:0e:c8:50:04:76:0a:2f:b6:c6:
                    b5:fc:80:f0:5a:36:b4:59:e0:3c:53:1c:33:11:74:
                    cf:6d:e6:f3:9e:d6:9e:f1:9c:3e:1d:27:9a:62:17:
                    bd:96:59:f0:44:03:bc:80:b9:80:25:8b:94:db:64:
                    f3:a4:3c:e6:25:45:e4:d6:e2:c2:7a:c1:e0:46:94:
                    8b:01:51:8d:60:63:13:c7:7e:22:45:e0:51:de:aa:
                    c6:d3:ed:68:e1:7e:f2:14:a6:04:74:f8:8e:16:bc:
                    32:c1
                Exponent: 65537 (0x10001)
        X509v3 extensions:
            X509v3 Basic Constraints: 
                CA:FALSE
            Netscape Cert Type: 
                SSL Client, SSL Server, S/MIME, Object Signing
            X509v3 Key Usage: 
                Digital Signature, Non Repudiation, Key Encipherment, Data Encipherment
            X509v3 Subject Key Identifier: 
                3F:BD:B9:55:8D:30:8C:27:3A:6D:BE:D4:9B:7A:08:F7:88:C8:18:A3
            X509v3 Authority Key Identifier: 
                keyid:5E:A9:D0:F0:A6:17:64:AD:66:67:E5:1D:EC:E0:8E:D0:70:2C:76:68

    Signature Algorithm: sha384WithRSAEncryption
         af:bb:ca:95:41:bd:a2:d4:99:7b:16:0e:ec:51:68:9f:41:b1:
         cc:49:1e:be:f5:20:e5:a0:e7:45:8e:df:8d:54:7e:a1:c2:03:
         94:81:97:67:b0:9e:0b:00:1f:1b:bf:b4:43:8f:ee:23:1e:2c:
         99:cf:ee:c5:7b:db:b7:45:dc:f0:c5:48:95:f6:78:f0:13:15:
         18:64:d0:e2:e8:d1:b5:3b:8a:b5:de:2d:17:ae:3a:ae:13:e2:
         95:5a:1f:89:a8:b5:01:77:60:8f:28:10:13:95:70:a9:55:4a:
         16:c9:41:f6:6d:b5:8d:68:28:04:84:4f:77:e0:b5:fc:55:74:
         fd:d5:63:42:3d:26:f3:72:2c:32:15:57:d1:64:79:e2:0f:93:
         d0:14:f4:e8:34:b2:9f:fa:34:dd:55:e8:ca:32:b5:6f:8f:f4:
         5c:2f:cb:3f:75:c1:4e:50:fd:2b:24:12:fb:8b:87:36:2d:91:
         ce:2c:ab:94:85:08:09:27:d1:1e:1c:76:70:0b:30:df:e2:88:
         c9:bb:4b:44:67:3d:51:27:23:08:c0:d8:c0:58:25:e9:37:81:
         45:f8:f3:40:ef:f8:2a:27:20:7f:5c:bb:1c:72:f4:e2:59:2c:
         2b:44:e9:33:ec:20:a3:7a:ea:77:ad:de:4c:f4:f5:ef:c9:1a:
         32:18:38:69
-----BEGIN CERTIFICATE-----
MIIDYjCCAkqgAwIBAgIJALFbY238RUMfMA0GCSqGSIb3DQEBDAUAMDYxCzAJBgNV
BAYTAkVVMRAwDgYDVQQKDAdFTUlUZXN0MRUwEwYDVQQDDAxUaGUgcm9vdCBDQTEw
HhcNMTkwMjIwMjI0MzM3WhcNMjQwMjE5MjI0MzM3WjA8MQswCQYDVQQGEwJFVTEQ
MA4GA1UECgwHRU1JVGVzdDEbMBkGA1UEAwwSVGVzdFVzZXJXaXRoU0hBMzg0MIIB
IjANBgkqhkiG9w0BAQEFAAOCAQ8AMIIBCgKCAQEAzgkrDhT+J2agz3HT2/u12zJL
YB5TNA8QhrTnvBWWL0RxMc0wAawqnIZSd73oEe1qzWbP4PfIBNqdHWxlqWJAssOC
gN+42rDn/xb5vuIQIsl0KQjLSwREgWX0qt9XpDL9at8Yk0/J7jD5DULvtcZzb7re
uT+UVy5mfQ9Amu75/ummP9NAgCacaUojx9ZRHTISNzRDK44k/AnxXMkOyFAEdgov
tsa1/IDwWja0WeA8UxwzEXTPbebzntae8Zw+HSeaYhe9llnwRAO8gLmAJYuU22Tz
pDzmJUXk1uLCesHgRpSLAVGNYGMTx34iReBR3qrG0+1o4X7yFKYEdPiOFrwywQID
AQABo20wazAJBgNVHRMEAjAAMBEGCWCGSAGG+EIBAQQEAwIE8DALBgNVHQ8EBAMC
BPAwHQYDVR0OBBYEFD+9uVWNMIwnOm2+1Jt6CPeIyBijMB8GA1UdIwQYMBaAFF6p
0PCmF2StZmflHezgjtBwLHZoMA0GCSqGSIb3DQEBDAUAA4IBAQCvu8qVQb2i1Jl7
Fg7sUWifQbHMSR6+9SDloOdFjt+NVH6hwgOUgZdnsJ4LAB8bv7RDj+4jHiyZz+7F
e9u3RdzwxUiV9njwExUYZNDi6NG1O4q13i0XrjquE+KVWh+JqLUBd2CPKBATlXCp
VUoWyUH2bbWNaCgEhE934LX8VXT91WNCPSbzciwyFVfRZHniD5PQFPToNLKf+jTd
VejKMrVvj/RcL8s/dcFOUP0rJBL7i4c2LZHOLKuUhQgJJ9EeHHZwCzDf4ojJu0tE
Zz1RJyMIwNjAWCXpN4FF+PNA7/gqJyB/XLsccvTiWSwrROkz7CCjeup3rd5M9PXv
yRoyGDhp
-----END CERTIFICATE-----
-----BEGIN ENCRYPTED PRIVATE KEY-----
MIIFHDBOBgkqhkiG9w0BBQ0wQTApBgkqhkiG9w0BBQwwHAQImuXO+orKwHwCAggA
MAwGCCqGSIb3DQIJBQAwFAYIKoZIhvcNAwcECK/5QZbpEOH6BIIEyLdNBjqOVNx1
X9cvk4g5sAmYEp3dAb0oiRy2YXYDoCp6gw8ZjyfORty4zhNRVJcXG0O0y8RAA4GQ
MKMHQltcTcuBn6lYXOEp8WBamTm8EJV7+q3zJpuRyXG68qZxCKSdQlAavzvBzZ/0
hMtGGA55XvDZ4CsQWsciLSBu8mp9o1wBJ5F61+XnE1i6+JO/gHLXFw2gd0Of55Kt
WqyeGU+gjuf+2bxyXuOll94s+5ecRccHmA2MuYwz5O36CrIePwTtmCFET7H5k8ga
3FKDDZygQwX2E0/RC1hz4kwmn388qTAkaLjYIeMLdWZiBnLtwRwq9oCpP29q9iT2
3WByUaUrb8qYHKfHAK8qexvfPIBXWALWrvEJj8LmbtZUF+5Tu43aocTAtc5tcM0n
yaxuEvmHvIZ74YpnIdEWaGmYOVaBztcNLfGAjb2JbSJnQVfGt0PuUI0h3A+iECWK
f1PAAK7LN0TRP2RJnZXYKrm+lBwGZTHuFpJ9b6jSjdPtouG7vClqC6mrmgNbYTrG
dbfZRvJ5hq0HvHt1sK6Wr4+SkoUHFJW5OeiPqe7dMkIrocjKnzBjLH2wKr5byeR7
ZUCe0WP+yYNnoUSsxPy0temp3wQMts1iRSgIk5mGDa8UKMlaiS6r6GUXBnbqwyfr
86UiQ202OTto7o6ekreCQ0JkBTsLCtAaogINeROQMZcFdpmXYbTMf1VP4CluPqMy
FhsCMnrHCFnYGGwqw1tqw4kNesHK7naZCktZjDBy7NdA0Bp+PV478ZvVl6oB0R/Y
SzeAFHGrKsBKK/zjznB+ZrKMH6FBRXKHGagOPUtn2+2OJmN0NOuU8Aq9bhGliNcz
dCzVBC0VrKd3ZcjwnytxtqXt/2GF0cLZclFUKXkAtrNhgWbaUz7Ae/3Ou5xhQLI7
SfyEadUSK1pWgrVn86pJKltjPdHjextCWskqwyeuSy6NsUZQ8HTpEWYYMu7OMx6h
fwBB/baXIlTay9DixvoALakn3He7KQhbpZt0b9IRr3NOUGmMOhr/yFGwhmAVxszR
WF0VnScIxEJpmoWF00GUycz5HJgCjD1S0QiK7ky64EkWU5Gq17S3C2sqeLorrEUh
Bww9IJOT1z4w7hXxfoGjgnYQ7npZJFcTZOTxPCySqIsnhX8AnRGTuivts5m3t6U5
Gnnft19sIeRObVTA9a2iEibG667ePlK2/pJeiO0lm2oO4fIFF8Msyzbk0XkwxCCo
5GZc1PEBeZS++S7lIUhpwUcjNllJrTtF5lr3UqmU8pdgDBoxXXK8YVP1RbKNYYWn
dv0tkMBCq6flcoGvyvg7Njcf3gLYyWyg80urMTb5GFEERSMvg4So98tQzg9Sh2tx
Tdg6dCUAxoZeWISzKz8zJxd5rTDapm3a9Y+0L86Z58rki2g9bFpCC9lrfHiDxKb4
YMGoP8m0Prawk8cjWJkDcGH8qjZytSD+mtGe5PYPHt2BE/vMBSwa4um0eRoTjI6M
6wFvoiPfNRQnEMAZH55gzbO+ljoRKsQTlQcMz5htlOjrLJDwodCw/AU7rEousycH
WVD5Ru/mMgjseWmoD7ZXHgEPkydXcN9fBN0tMl4GRSy43qjVY+GjgL0eDD3hZ0Kr
bHz8YFZUe9pX+p4JsohSMw==
-----END ENCRYPTED PRIVATE KEY-----