Certificate:
    Data:
        Version: 3 (0x2)
        Serial Number:
            b1:5b:63:6d:fc:45:43:1c
    Signature Algorithm: sha512WithRSAEncryption
        Issuer: C=EU, O=EMITest, CN=The root CA1
        Validity
            Not Before: Feb 20 22:29:31 2019 GMT
            Not After : Feb 19 22:29:31 2024 GMT
        Subject: C=EU, L=Warsaw, O=EMITest, CN=TestUserWithSHA512
        Subject Public Key Info:
            Public Key Algorithm: rsaEncryption
                Public-Key: (2048 bit)
                Modulus:
                    00:d0:2b:a1:30:78:90:96:b8:95:e2:b0:e8:cd:65:
                    d9:2b:3c:71:44:f1:26:58:de:3d:7f:6b:67:db:83:
                    d8:3b:6a:d3:5d:8d:9d:94:80:b7:0b:96:65:2a:6c:
                    92:d1:a4:29:0d:69:e8:4f:ad:2f:e4:29:85:f0:93:
                    a4:b4:36:90:01:2b:65:37:66:c5:32:07:da:c2:09:
                    30:f7:5f:78:1d:f0:c6:46:4d:5f:16:9c:ce:23:12:
                    6d:ea:c0:14:7a:36:1c:46:a9:c1:4b:fd:6b:53:e9:
                    88:ac:fc:49:e1:52:a3:75:db:66:f5:a4:60:a2:4a:
                    e8:c9:71:fc:61:2d:93:77:39:48:66:6b:f0:ea:28:
                    03:43:ee:60:cf:ce:6d:47:33:8a:cf:f1:aa:ac:e2:
                    75:48:87:4a:d0:c0:56:bc:c7:0e:b2:4c:c9:fd:1e:
                    36:8e:37:3c:5a:5f:31:12:0e:f1:8c:ec:24:be:d9:
                    cf:0e:40:99:85:83:6f:36:20:91:05:52:d4:a8:63:
                    83:60:46:20:10:d7:e8:95:8f:56:c0:b1:d1:8b:66:
                    5b:86:28:e9:c4:e0:67:7b:12:f1:63:74:01:7e:a9:
                    e8:8f:2f:fa:6e:2e:4e:46:f9:64:9b:b5:6b:e4:ba:
                    f7:ce:5f:da:ae:49:7b:d2:fc:35:2f:ea:35:7f:a1:
                    50:31
                Exponent: 65537 (0x10001)
        X509v3 extensions:
            X509v3 Basic Constraints: 
                CA:FALSE
            Netscape Cert Type: 
                SSL Client, SSL Server, S/MIME, Object Signing
            X509v3 Key Usage: 
                Digital Signature, Non Repudiation, Key Encipherment, Data Encipherment
            X509v3 Subject Key Identifier: 
                1D:69:53:65:D3:7B:1A:18:72:1F:44:40:12:F3:06:46:39:B8:5E:AF
            X509v3 Authority Key Identifier: 
                keyid:5E:A9:D0:F0:A6:17:64:AD:66:67:E5:1D:EC:E0:8E:D0:70:2C:76:68

    Signature Algorithm: sha512WithRSAEncryption
         b6:17:d8:4b:84:fe:15:99:14:bd:51:c5:8b:4a:32:fa:6c:71:
         1e:d7:28:af:67:ea:8a:63:01:a5:0a:6f:2f:ac:47:c8:b0:8c:
         04:78:ce:bd:9c:e1:a8:0e:84:f5:6b:44:5f:a2:a1:4d:9b:84:
         e6:be:cf:74:bd:7f:4d:c7:af:68:b1:97:44:ea:64:4d:bd:49:
         4a:98:a4:ca:24:a3:9f:29:4d:f8:87:0f:d7:37:12:d8:09:8f:
         9e:d1:55:80:b8:83:0b:0e:34:5b:8a:e2:86:5a:d8:27:f7:01:
         27:2b:a7:58:fe:35:2b:d5:5b:0f:4d:47:fe:da:f7:96:65:00:
         24:64:c2:7c:95:08:9c:b5:9c:48:fc:13:cc:36:44:ca:35:18:
         63:91:33:0a:34:44:65:a0:df:3d:4f:57:7d:fa:50:2a:e8:e1:
         20:7f:0b:be:85:3e:fb:5c:69:dc:9e:4f:47:1e:1f:bc:b0:a7:
         b8:df:e5:3d:d7:1e:25:62:eb:70:0e:80:fc:db:f1:57:33:85:
         55:25:cb:14:af:f3:27:45:a6:38:b8:4c:9c:9f:d2:c5:50:6b:
         45:e5:bc:96:3c:b4:7a:8a:59:ea:c9:6a:c8:8b:52:ad:dd:09:
         91:42:7e:d5:26:ae:18:2f:36:75:70:a5:05:d0:78:4e:cc:5e:
         ff:7d:3f:3a
-----BEGIN CERTIFICATE-----
MIIDczCCAlugAwIBAgIJALFbY238RUMcMA0GCSqGSIb3DQEBDQUAMDYxCzAJBgNV
BAYTAkVVMRAwDgYDVQQKDAdFTUlUZXN0MRUwEwYDVQQDDAxUaGUgcm9vdCBDQTEw
HhcNMTkwMjIwMjIyOTMxWhcNMjQwMjE5MjIyOTMxWjBNMQswCQYDVQQGEwJFVTEP
MA0GA1UEBwwGV2Fyc2F3MRAwDgYDVQQKDAdFTUlUZXN0MRswGQYDVQQDDBJUZXN0
VXNlcldpdGhTSEE1MTIwggEiMA0GCSqGSIb3DQEBAQUAA4IBDwAwggEKAoIBAQDQ
K6EweJCWuJXisOjNZdkrPHFE8SZY3j1/a2fbg9g7atNdjZ2UgLcLlmUqbJLRpCkN
aehPrS/kKYXwk6S0NpABK2U3ZsUyB9rCCTD3X3gd8MZGTV8WnM4jEm3qwBR6NhxG
qcFL/WtT6Yis/EnhUqN122b1pGCiSujJcfxhLZN3OUhma/DqKAND7mDPzm1HM4rP
8aqs4nVIh0rQwFa8xw6yTMn9HjaONzxaXzESDvGM7CS+2c8OQJmFg282IJEFUtSo
Y4NgRiAQ1+iVj1bAsdGLZluGKOnE4Gd7EvFjdAF+qeiPL/puLk5G+WSbtWvkuvfO
X9quSXvS/DUv6jV/oVAxAgMBAAGjbTBrMAkGA1UdEwQCMAAwEQYJYIZIAYb4QgEB
BAQDAgTwMAsGA1UdDwQEAwIE8DAdBgNVHQ4EFgQUHWlTZdN7GhhyH0RAEvMGRjm4
Xq8wHwYDVR0jBBgwFoAUXqnQ8KYXZK1mZ+Ud7OCO0HAsdmgwDQYJKoZIhvcNAQEN
BQADggEBALYX2EuE/hWZFL1RxYtKMvpscR7XKK9n6opjAaUKby+sR8iwjAR4zr2c
4agOhPVrRF+ioU2bhOa+z3S9f03Hr2ixl0TqZE29SUqYpMoko58pTfiHD9c3EtgJ
j57RVYC4gwsONFuK4oZa2Cf3AScrp1j+NSvVWw9NR/7a95ZlACRkwnyVCJy1nEj8
E8w2RMo1GGORMwo0RGWg3z1PV336UCro4SB/C76FPvtcadyeT0ceH7ywp7jf5T3X
HiVi63AOgPzb8VczhVUlyxSv8ydFpji4TJyf0sVQa0XlvJY8tHqKWerJasiLUq3d
CZFCftUmrhgvNnVwpQXQeE7MXv99Pzo=
-----END CERTIFICATE-----
-----BEGIN ENCRYPTED PRIVATE KEY-----
MIIFHDBOBgkqhkiG9w0BBQ0wQTApBgkqhkiG9w0BBQwwHAQIyxAdwLeeM5UCAggA
MAwGCCqGSIb3DQIJBQAwFAYIKoZIhvcNAwcECK4YQnTw6Wz3BIIEyPcpJPF3Q587
qHJq3n5022/PeQIAaxPLt1d7YstPi4cXXrqG0zBxyQtAFB6WviJrYU4e2y76Ec/U
vXesuKd6gcHQ0aQBSne/YRPvdWgyDJSJpMiecB7zWhQdI5/0sBmCTF2BwYTViSsY
u0jqt6Bc/stRSL++Bbd+NdXNHpGbtCeB+q7nLyIkLDU5ZCkG6PdsIvXFPaw8tvsO
laNEibb0x+sgLXzdjQLKGmZVpfkZWGb5Qj8ZgRw/tSw+0bW8aTVTdhbmUh9R3KYL
C3ldIkMRDtCcnMSkS7JzZbWZebQlmPZnhe8l1C98aYpX3YkxI9pWs20rFd4nJmqB
KHA0rJpl4C72ZqJnkR/FBXRG9QjbZ39Xf5GkTX+iIpuiTX5A8d3oluMIgu7aAlFS
8NKeO0fmJggxNKv14Lyf7B4aL9aTCzFg64wgvN+tYDuklw+PBjXHT1dmO/YLaIKu
Zc0bZ0dtwj6HGJJdNIYuGn9ynOEXC8uZ3SUTR45h1uMM1/WFKYDI5c5/u7BiWJ9G
zcthSxAkjTW4fiFCQFJg0psOuwql+N9fX4yohUBV4Y3evz7Xlaxub6Y4Fae2Fly9
dyFLL0cifs8pW7sSCniFTsqVbKA3HyfBHeGCmY3Y1mRf7fq9UQKwBw8cGDnexOER
AKiyIfAwUNFyVJdV9EwZYYbn0Ck17XjHYtJjNrWLCend8tkjyQmPZODhSPsAtKCH
uGeIMumbfu3sc6x0CX8ngAS1zjehoTRhGIKj+N7/lEB7g+F8qFOFj7qiUZo58GGd
zjszhJNlTxJ5bS9rdQxsRERu1HKYKQkOYvBRy/BHhZt7fj4Oi2uMVMPG3iNo+vYi
389aB/FiUGyzUFMyzTeKrCtCdLhsc1u4tbM8D6TmIV1QMm2MbDL9n8rvKOJEZ3DD
VfGXf0QjvTW186VF928WMF1oEdWNK8gmSnTMdIJFh1ITeEKDi00VVUr8870dEqqd
q7DyeN4sCXSV90YuZ4ug23HyLBdZ4wZYRO4qaRJgDYxvvmDVcx1KxXZmY9hj/P+5
CfuAU00Zu6DGuoSO3iz7On++r9mKpJfxbC4PZggWhIdDamVjs4CjIM82u0RfOCyj
W2hL5LyyGBZ8lL9mvKN8bJqIvbBEMpNZh37Z/0dQl1yH9sq3X33qhvjFC5SYe68o
MwPd/u1h+vRv6iTDGru40oFBjnfw3gn0ebXr1zxFBfwi8hmR+Eum0OrbNrXngxBz
xI53xDhhsZtcX/8buukcvvchFbGeBkqLBs1p0NKMQfSi2uDfSxyFIVSaB5SG3bRt
Xo7wKMrHpYg7srucSuGbAFd5YPmLbjXuVhQK8OmRM+qRwOraD9N71/4TTauH1KgF
uKQv0/B3R62qiptuoxTKILBSm3PkHhVkz6X1QCMBwl8RyKAIz7Gjfyg4xI7Jmg88
9bmyp8h46kY54Zcjh+NUXIQ1uGwMhyvZpji8ujLBJLHSP6XF4NCZN3KJqRk5AmW0
6n9jUNGypv9Cw0q4q1OKVS/kWI3BDhuPZc/PPzBx/Ewuju4P9YcfFpXpGebgwwOc
/a0FJmBanTDDhFAczQjYmMQ02W2nsH4bkq4JQVNXmj/jAtXMnazWYCgtRdmS+B21
sJPyl6/TlFUQ/JASMv4UVA==
-----END ENCRYPTED PRIVATE KEY-----
