Certificate:
    Data:
        Version: 3 (0x2)
        Serial Number:
            b1:5b:63:6d:fc:45:43:1e
    Signature Algorithm: sha256WithRSAEncryption
        Issuer: C=EU, O=EMITest, CN=The root CA1
        Validity
            Not Before: Feb 20 22:42:10 2019 GMT
            Not After : Feb 19 22:42:10 2024 GMT
        Subject: C=EU, O=EMITest, CN=TestUserWithSHA256
        Subject Public Key Info:
            Public Key Algorithm: rsaEncryption
                Public-Key: (2048 bit)
                Modulus:
                    00:cf:0f:22:6f:70:77:01:75:df:d4:12:e3:1f:fc:
                    7e:7b:dc:ed:a6:9d:2b:2f:a3:2c:6b:ec:ce:ce:61:
                    c6:c0:7a:ad:87:ec:5a:0b:ac:2c:5a:34:ea:c7:66:
                    cc:44:21:96:5a:e3:5f:66:66:35:bb:d4:dd:3b:d4:
                    95:a6:b5:78:f0:40:82:d4:f4:d9:76:9b:de:91:ac:
                    b5:70:28:18:83:cf:f9:87:91:e1:44:ff:fc:f0:f1:
                    fa:4b:80:33:9f:a8:23:42:31:b8:94:2d:41:c0:68:
                    2a:11:76:56:1a:cf:b6:bc:13:56:29:3b:87:bb:2b:
                    6e:55:ca:82:5f:77:59:f6:39:e1:d8:df:bd:75:a1:
                    52:02:ff:43:e5:c4:a3:72:61:2c:ed:0a:de:94:61:
                    b3:ac:24:79:01:da:6d:5e:42:7f:54:1a:ca:60:bf:
                    72:8d:51:ad:3d:ce:c5:26:9c:6c:3a:16:89:c4:2b:
                    be:65:f2:eb:da:5b:d3:20:4f:af:c0:e5:e2:3e:d7:
                    59:a5:a0:b0:64:fe:94:11:86:71:9e:80:90:86:60:
                    6f:bb:01:7d:75:74:59:b9:0e:f1:b3:16:09:84:cf:
                    0a:f5:2c:67:06:31:35:e4:87:eb:fa:e3:5c:bd:59:
                    f8:e0:a0:94:dd:03:dd:d6:18:56:f1:b3:3b:f5:14:
                    e1:09
                Exponent: 65537 (0x10001)
        X509v3 extensions:
            X509v3 Basic Constraints: 
                CA:FALSE
            Netscape Cert Type: 
                SSL Client, SSL Server, S/MIME, Object Signing
            X509v3 Key Usage: 
                Digital Signature, Non Repudiation, Key Encipherment, Data Encipherment
            X509v3 Subject Key Identifier: 
                E8:64:2F:D4:EE:07:8A:3B:79:57:F4:4F:39:DE:F2:41:12:01:EF:2C
            X509v3 Authority Key Identifier: 
                keyid:5E:A9:D0:F0:A6:17:64:AD:66:67:E5:1D:EC:E0:8E:D0:70:2C:76:68

    Signature Algorithm: sha256WithRSAEncryption
         2b:d5:18:b6:bf:97:58:76:1c:c4:f8:ef:38:5b:67:7f:bd:05:
         dd:b7:c1:ff:e5:e8:24:b8:4f:cc:9c:ca:e9:21:32:23:5b:17:
         a1:d0:ce:85:99:c7:49:8b:80:07:d8:d1:d4:f7:d3:cc:a0:1c:
         bc:8c:86:1a:da:fc:57:38:cd:87:cd:2c:6b:00:9b:d3:1f:f3:
         56:63:a6:65:b3:8f:de:a5:cb:f3:59:67:12:26:72:bc:c8:ca:
         35:d1:e3:cb:85:95:15:b2:1b:37:85:1a:f8:6a:c2:4b:c9:29:
         01:4f:35:20:57:30:45:61:e2:c3:37:7e:45:84:1e:6d:de:fb:
         fc:85:e6:0c:de:7e:4d:13:ed:6e:7e:42:90:20:67:a9:8d:96:
         06:05:e2:e4:4e:05:73:a8:e0:42:ea:79:1d:8c:5f:58:8d:ed:
         c7:c5:8e:f9:98:bd:5c:23:71:6c:c6:f3:44:cd:39:3d:13:74:
         4d:e1:d9:cb:c2:64:13:f7:9d:c3:9b:e2:b9:2b:13:45:86:0b:
         0d:aa:28:5a:03:51:32:1a:c7:3b:88:b1:07:ab:4d:ed:0f:b7:
         79:e5:29:92:82:07:13:df:1f:96:99:f0:8a:1a:4d:90:f1:0f:
         9f:f7:8f:3b:cb:4c:93:e9:10:2d:04:a2:ca:a2:94:c5:45:d6:
         1b:92:32:79
-----BEGIN CERTIFICATE-----
MIIDYjCCAkqgAwIBAgIJALFbY238RUMeMA0GCSqGSIb3DQEBCwUAMDYxCzAJBgNV
BAYTAkVVMRAwDgYDVQQKDAdFTUlUZXN0MRUwEwYDVQQDDAxUaGUgcm9vdCBDQTEw
HhcNMTkwMjIwMjI0MjEwWhcNMjQwMjE5MjI0MjEwWjA8MQswCQYDVQQGEwJFVTEQ
MA4GA1UECgwHRU1JVGVzdDEbMBkGA1UEAwwSVGVzdFVzZXJXaXRoU0hBMjU2MIIB
IjANBgkqhkiG9w0BAQEFAAOCAQ8AMIIBCgKCAQEAzw8ib3B3AXXf1BLjH/x+e9zt
pp0rL6Msa+zOzmHGwHqth+xaC6wsWjTqx2bMRCGWWuNfZmY1u9TdO9SVprV48ECC
1PTZdpvekay1cCgYg8/5h5HhRP/88PH6S4Azn6gjQjG4lC1BwGgqEXZWGs+2vBNW
KTuHuytuVcqCX3dZ9jnh2N+9daFSAv9D5cSjcmEs7QrelGGzrCR5AdptXkJ/VBrK
YL9yjVGtPc7FJpxsOhaJxCu+ZfLr2lvTIE+vwOXiPtdZpaCwZP6UEYZxnoCQhmBv
uwF9dXRZuQ7xsxYJhM8K9SxnBjE15Ifr+uNcvVn44KCU3QPd1hhW8bM79RThCQID
AQABo20wazAJBgNVHRMEAjAAMBEGCWCGSAGG+EIBAQQEAwIE8DALBgNVHQ8EBAMC
BPAwHQYDVR0OBBYEFOhkL9TuB4o7eVf0Tzne8kESAe8sMB8GA1UdIwQYMBaAFF6p
0PCmF2StZmflHezgjtBwLHZoMA0GCSqGSIb3DQEBCwUAA4IBAQAr1Ri2v5dYdhzE
+O84W2d/vQXdt8H/5egkuE/MnMrpITIjWxeh0M6FmcdJi4AH2NHU99PMoBy8jIYa
2vxXOM2HzSxrAJvTH/NWY6Zls4/epcvzWWcSJnK8yMo10ePLhZUVshs3hRr4asJL
ySkBTzUgVzBFYeLDN35FhB5t3vv8heYM3n5NE+1ufkKQIGepjZYGBeLkTgVzqOBC
6nkdjF9Yje3HxY75mL1cI3FsxvNEzTk9E3RN4dnLwmQT953Dm+K5KxNFhgsNqiha
A1EyGsc7iLEHq03tD7d55SmSggcT3x+WmfCKGk2Q8Q+f9487y0yT6RAtBKLKopTF
RdYbkjJ5
-----END CERTIFICATE-----
-----BEGIN ENCRYPTED PRIVATE KEY-----
MIIFHDBOBgkqhkiG9w0BBQ0wQTApBgkqhkiG9w0BBQwwHAQIw7HnTtM2R70CAggA
MAwGCCqGSIb3DQIJBQAwFAYIKoZIhvcNAwcECPmP0aCArL3BBIIEyMWiQvI5/b0J
+Xt1KLH/8AkzqyfqfpdhapWId24oxfED9KAQhqrlFH7a6h14PbtJJZFkoZoCprcT
wWom7iOEH8jRA4WTov9o5ya4Apx4UzheH7AZCs+/WxADUEGj0in3pip6Ux/QNN11
sGG/h0psfIjZNNgC7woDXL6YoW+UKUkxEmhtQohkFfjE/6TgHpGzhgvuMiFRqLRl
2rn0CGywDo5QzRoGyvtGTuRwar4omi+XHC0By1OW+1mcTY5/SnU2wginSUkBCU3F
Xbc4Ir+STeJ2x6Q+x+FVT6LavFW4o42LFhastvcP1Wc7l/tPAJ4ni9XwRbqsqJxU
TrT62ZHYDeK5wdA7Aqo1ZCtcMhBk98uE1NNiqi6Ui2KBiiKIJXtz1L5OwVBWWVAp
RewxZomEFukgMFSr6Tr2b62gTtO6YnMxChRHFWfJmdooFUx3ESbc17tTb57TAFzC
NBIfVqU6avs1BPaEZ6VsqPAIynwm1xbewJH4HBcDAVH6WssU2UPrWwGlb/Y8uU3/
Ma+ByvELzpkxZ8wDMevWtsbx3+W4rgxbTSx4C8MGXvA66yACtdBvYqdzGxAtdPpu
2m87epsJhaqjVsWjIODj90oSWpK6Lsi3lxOn8aW6Hy4k1hiiLz6gqO4LelrzpmsR
D6K/tjov4+WogoEZ1LSPlEE1t1RAVLCrfw+fQ9/PUqUJSC7E3YOntKcSVOgqATve
XZdCcz7eqdw+h3tY29ItJQN0ZKUAEj+eGPwB0zb6Blx+sH0V2gFWJhE1PmzM5lqK
6g+QvXeHf01CFCDJxEPk6gRntJp1nIDJv/R30F9Qsv1nWyL8COleCRE8TELj8uhW
ZqoPNJeH8YByrO5sAB5O4eJqZkWuYtNGYBnXuWOP+dyVVA/a/MQrKr8ujN1bbjF+
B0qJpxGN6vC2kOl4CgAaSKS8EXqkYB2rFvhrTv46p4SRWCJI3Qqr2gSiZZz84F2X
IyqbcEgpskl0a2LJj918qrhq4iBW8FuU0aZnk51EWnezJeVc0bV876OXrpLebSgt
WQCFZgEMoAVcNgo1IjuiK1fzN7jDuhlOXm6xeIkw3mWQg47IOJ5ZgMQcZs3rQ/Bt
MchNuiymBqp0j9w0S3ypMjBf13xKXGC6az3VgmyeWBTWgTKUHeRXVYOJclhBSSyL
gJs0XKqnYSMg56rvUX8mMeGwN7cwYXqCdG5X7VmoV3be26snYff8/f0GiWWMb3eg
OrL8eXopPc/uiDbgdAQeunpC2bTvRGisdwUW8ae4v25L0rrUmiaC36phjj5EkPVj
vaMHuOsNhsBssbZAMBmGkqnA2e6jdKOjhsgjdZNh/CMn6XBByW47mg2MM7R1CBqJ
mOw1gSpyM6Dvx+6UFfs38LFnpDq9S4aEomN6yd1PzICiE4yd6BcTGjHfqwQ3OD+P
eBBmfUxbxMtByQBARKyWAOnUXDlMzyJu5r8DiB/fs0nR2tBCXQz2pup8yhFQZniZ
deRSQASQvxkgKxyg3yi2kkk/Kj/zkdE1bKQWejwrdUYRY+OXD0PfVVCxZhlXbxYS
aWc1/HwDpO0WnIekOZVD3X4vB9tNz7Mf0Ve7FtQnIprvgmqgNxnfXCGpkSZiYMp9
n0KufUUN0tUpi+b91zIRIA==
-----END ENCRYPTED PRIVATE KEY-----