Certificate:
    Data:
        Version: 3 (0x2)
        Serial Number: 0 (0x0)
        Signature Algorithm: sha1WithRSAEncryption
        Issuer: C=EU, O=EMITest, CN=The root CA1
        Validity
            Not Before: Dec 21 16:18:21 2011 GMT
            Not After : Jun 14 16:18:21 2112 GMT
        Subject: C=EU, O=EMITest, CN=The root CA1
        Subject Public Key Info:
            Public Key Algorithm: rsaEncryption
                Public-Key: (1024 bit)
                Modulus:
                    00:b6:cc:b3:89:01:74:7f:6f:66:33:a5:a7:9e:a4:
                    8d:d7:9f:60:66:7c:10:24:c9:ba:a3:a0:84:fb:7a:
                    8a:cd:1a:66:01:ac:c1:90:bd:e7:52:df:8c:be:dc:
                    1c:0e:be:8e:35:59:0c:8a:ba:45:2b:b7:87:c6:50:
                    e2:71:bc:65:a8:58:fb:44:65:a9:3b:23:ba:54:73:
                    35:2f:7b:0e:0b:62:ad:24:3d:b5:be:c3:df:ad:e6:
                    7d:f5:83:35:d5:3f:d9:95:e0:f5:18:0a:62:b8:17:
                    64:54:95:59:ca:38:09:7b:00:70:71:36:0d:86:72:
                    e1:3f:a2:41:7f:53:94:85:97
                Exponent: 65537 (0x10001)
        X509v3 extensions:
            X509v3 Basic Constraints: 
                CA:FALSE
            Netscape Cert Type: 
                SSL Client, SSL Server, S/MIME, Object Signing
            X509v3 Key Usage: 
                Digital Signature, Non Repudiation, Key Encipherment, Data Encipherment
            Netscape Comment: 
                Certificate generated by the EMITest CA1
            X509v3 Subject Key Identifier: 
                B4:5B:9D:2A:7B:FA:85:2D:F9:AF:B8:8C:4B:16:67:DE:20:2D:D1:14
            X509v3 Authority Key Identifier: 
                keyid:B4:5B:9D:2A:7B:FA:85:2D:F9:AF:B8:8C:4B:16:67:DE:20:2D:D1:14

    Signature Algorithm: sha1WithRSAEncryption
        3d:6d:9c:40:6c:d2:cd:fd:a7:0d:fe:78:2c:10:63:75:c7:ac:
        3a:a1:76:43:8b:07:e9:38:6b:30:c1:99:c3:28:c7:59:c4:1d:
        c1:29:49:e7:40:4d:f8:4c:a6:4d:b9:bf:7c:98:8c:f0:9e:cc:
        01:fb:30:e9:09:32:99:36:2d:9f:ad:9f:3a:5b:b1:98:8a:f6:
        21:79:df:bc:f8:46:2e:cb:a4:a8:60:6f:a9:c5:a0:80:99:29:
        98:5d:9c:36:42:f7:4a:57:a2:3c:68:f1:d7:7f:5f:98:90:3f:
        2d:d5:f4:16:d6:d3:00:19:01:59:e8:1a:ca:f5:1d:d9:86:49:
        47:c7
-----BEGIN CERTIFICATE-----
MIICjDCCAfWgAwIBAgIBADANBgkqhkiG9w0BAQUFADA2MQswCQYDVQQGEwJFVTEQ
MA4GA1UEChMHRU1JVGVzdDEVMBMGA1UEAxMMVGhlIHJvb3QgQ0ExMCAXDTExMTIy
MTE2MTgyMVoYDzIxMTIwNjE0MTYxODIxWjA2MQswCQYDVQQGEwJFVTEQMA4GA1UE
ChMHRU1JVGVzdDEVMBMGA1UEAxMMVGhlIHJvb3QgQ0ExMIGfMA0GCSqGSIb3DQEB
AQUAA4GNADCBiQKBgQC2zLOJAXR/b2YzpaeepI3Xn2BmfBAkybqjoIT7eorNGmYB
rMGQvedS34y+3BwOvo41WQyKukUrt4fGUOJxvGWoWPtEZak7I7pUczUvew4LYq0k
PbW+w9+t5n31gzXVP9mV4PUYCmK4F2RUlVnKOAl7AHBxNg2GcuE/okF/U5SFlwID
AQABo4GnMIGkMAkGA1UdEwQCMAAwEQYJYIZIAYb4QgEBBAQDAgTwMAsGA1UdDwQE
AwIE8DA3BglghkgBhvhCAQ0EKhYoQ2VydGlmaWNhdGUgZ2VuZXJhdGVkIGJ5IHRo
ZSBFTUlUZXN0IENBMTAdBgNVHQ4EFgQUtFudKnv6hS35r7iMSxZn3iAt0RQwHwYD
VR0jBBgwFoAUtFudKnv6hS35r7iMSxZn3iAt0RQwDQYJKoZIhvcNAQEFBQADgYEA
PW2cQGzSzf2nDf54LBBjdcesOqF2Q4sH6ThrMMGZwyjHWcQdwSlJ50BN+EymTbm/
fJiM8J7MAfsw6QkymTYtn62fOluxmIr2IXnfvPhGLsukqGBvqcWggJkpmF2cNkL3
SleiPGjx139fmJA/LdX0FtbTABkBWegayvUd2YZJR8c=
-----END CERTIFICATE-----
