Certificate:
    Data:
        Version: 3 (0x2)
        Serial Number: 2 (0x2)
        Signature Algorithm: sha1WithRSAEncryption
        Issuer: C=EU, O=EMITest, CN=The root CA1
        Validity
            Not Before: Nov  5 13:02:42 2011 GMT
            Not After : Apr 29 13:02:42 2112 GMT
        Subject: C=EU, O=WrongOrganization, CN=User2
        Subject Public Key Info:
            Public Key Algorithm: rsaEncryption
                Public-Key: (1024 bit)
                Modulus:
                    00:f0:06:90:00:93:07:1b:fd:a6:b8:17:27:57:6d:
                    8e:10:e5:bc:c1:f5:0e:23:19:b3:79:28:58:46:3c:
                    c8:ef:05:0a:d3:3c:7b:6a:48:dd:0c:29:fa:ee:f5:
                    f2:ee:ef:9e:96:62:57:ed:eb:20:53:bb:c3:89:80:
                    b3:08:3c:35:b3:09:dd:6e:2d:8b:42:79:69:47:36:
                    83:e7:38:0e:0c:91:bc:ea:b2:aa:c0:9c:e4:cf:91:
                    e5:3f:6a:58:84:74:8d:50:f5:a5:04:ec:17:a5:bc:
                    eb:7e:6d:94:f3:a3:db:c8:7d:67:16:8f:eb:70:24:
                    9f:fc:50:1e:6a:bb:de:0f:89
                Exponent: 65537 (0x10001)
        X509v3 extensions:
            X509v3 Basic Constraints: 
                CA:FALSE
            Netscape Cert Type: 
                SSL Client, SSL Server, S/MIME, Object Signing
            X509v3 Key Usage: 
                Digital Signature, Non Repudiation, Key Encipherment, Data Encipherment
            Netscape Comment: 
                Certificate generated by the EMITest CA1
            X509v3 Subject Key Identifier: 
                96:10:9B:27:A2:22:C8:25:46:5D:00:AE:9D:76:B9:60:B5:0A:32:49
            X509v3 Authority Key Identifier: 
                keyid:50:FD:B6:76:CA:B5:9C:09:C3:91:20:0A:FE:54:7A:11:67:59:B8:0C

    Signature Algorithm: sha1WithRSAEncryption
        0d:ec:32:b7:b6:40:55:6a:d4:b4:1e:e5:12:e1:04:08:68:1c:
        cd:ff:50:f0:6c:ee:a6:d9:c5:23:e4:31:9c:20:a9:7c:03:69:
        0d:c7:81:47:c6:d8:71:17:be:ab:36:5b:a1:f2:f9:2b:f3:25:
        95:1a:2e:b8:3f:03:8f:c7:9b:78:1d:83:5c:bb:d2:98:18:58:
        a0:a2:2c:4d:7f:1e:1e:42:4a:45:41:e8:87:47:e8:44:58:a7:
        3a:91:e7:83:27:e6:ca:c8:3c:ce:22:68:d2:5b:0a:73:5c:13:
        03:2e:8b:96:76:da:38:5b:2f:08:b1:60:03:b7:c4:8a:62:5b:
        b8:7e
-----BEGIN CERTIFICATE-----
MIICjzCCAfigAwIBAgIBAjANBgkqhkiG9w0BAQUFADA2MQswCQYDVQQGEwJFVTEQ
MA4GA1UEChMHRU1JVGVzdDEVMBMGA1UEAxMMVGhlIHJvb3QgQ0ExMCAXDTExMTEw
NTEzMDI0MloYDzIxMTIwNDI5MTMwMjQyWjA5MQswCQYDVQQGEwJFVTEaMBgGA1UE
ChMRV3JvbmdPcmdhbml6YXRpb24xDjAMBgNVBAMTBVVzZXIyMIGfMA0GCSqGSIb3
DQEBAQUAA4GNADCBiQKBgQDwBpAAkwcb/aa4FydXbY4Q5bzB9Q4jGbN5KFhGPMjv
BQrTPHtqSN0MKfru9fLu756WYlft6yBTu8OJgLMIPDWzCd1uLYtCeWlHNoPnOA4M
kbzqsqrAnOTPkeU/aliEdI1Q9aUE7BelvOt+bZTzo9vIfWcWj+twJJ/8UB5qu94P
iQIDAQABo4GnMIGkMAkGA1UdEwQCMAAwEQYJYIZIAYb4QgEBBAQDAgTwMAsGA1Ud
DwQEAwIE8DA3BglghkgBhvhCAQ0EKhYoQ2VydGlmaWNhdGUgZ2VuZXJhdGVkIGJ5
IHRoZSBFTUlUZXN0IENBMTAdBgNVHQ4EFgQUlhCbJ6IiyCVGXQCunXa5YLUKMkkw
HwYDVR0jBBgwFoAUUP22dsq1nAnDkSAK/lR6EWdZuAwwDQYJKoZIhvcNAQEFBQAD
gYEADewyt7ZAVWrUtB7lEuEECGgczf9Q8GzuptnFI+QxnCCpfANpDceBR8bYcRe+
qzZbofL5K/MllRouuD8Dj8ebeB2DXLvSmBhYoKIsTX8eHkJKRUHoh0foRFinOpHn
gyfmysg8ziJo0lsKc1wTAy6LlnbaOFsvCLFgA7fEimJbuH4=
-----END CERTIFICATE-----
