Certificate:
    Data:
        Version: 3 (0x2)
        Serial Number: 4 (0x4)
        Signature Algorithm: sha256WithRSAEncryption
        Issuer: C=EU, O=EMITest, CN=The root CA1
        Validity
            Not Before: Apr 23 08:58:17 2012 GMT
            Not After : Oct 16 08:58:17 2112 GMT
        Subject: C=EU, O=EMITest, CN=TestUserWithSHA256
        Subject Public Key Info:
            Public Key Algorithm: rsaEncryption
                Public-Key: (1024 bit)
                Modulus:
                    00:ad:a6:25:24:2c:a4:69:e5:82:c1:57:53:e6:7f:
                    28:66:f1:9e:b4:48:c3:c4:c6:e1:60:0f:7c:59:3c:
                    3f:03:51:1d:2b:02:32:a5:9c:12:63:dd:0e:2e:8a:
                    f2:e0:b3:d0:10:70:58:a0:45:05:0a:1f:94:51:c2:
                    61:37:1c:97:44:c4:52:4a:e4:fb:6c:a2:4e:39:3c:
                    85:a4:6b:2a:0f:10:fd:d5:df:6d:bf:f9:82:cb:2e:
                    cb:27:8e:3b:b2:97:bf:65:17:28:46:90:e4:c8:14:
                    22:45:65:e2:0d:6e:a3:08:6e:54:92:c2:55:19:e7:
                    a0:8f:ed:97:50:dd:36:58:87
                Exponent: 65537 (0x10001)
        X509v3 extensions:
            X509v3 Basic Constraints: 
                CA:FALSE
            Netscape Cert Type: 
                SSL Client, SSL Server, S/MIME, Object Signing
            X509v3 Key Usage: 
                Digital Signature, Non Repudiation, Key Encipherment, Data Encipherment
            Netscape Comment: 
                Certificate generated by the EMITest CA1
            X509v3 Subject Key Identifier: 
                5E:C1:D8:6D:E5:DD:AF:84:BF:22:DA:0D:F5:97:59:38:66:4B:16:85
            X509v3 Authority Key Identifier: 
                keyid:50:FD:B6:76:CA:B5:9C:09:C3:91:20:0A:FE:54:7A:11:67:59:B8:0C

    Signature Algorithm: sha256WithRSAEncryption
        15:9c:ba:94:f5:fc:82:f7:46:56:56:b3:31:9c:8b:b3:1a:9e:
        a3:46:f1:75:78:f1:b2:40:da:e9:e1:5a:fd:51:09:2e:d2:a0:
        16:94:44:cd:8f:60:4f:27:13:c0:9d:5a:85:b5:38:96:46:f0:
        ac:ca:3a:eb:c5:45:22:83:bb:54:05:5c:94:de:48:23:58:0e:
        bd:6a:5b:60:96:4c:ca:08:d9:81:ab:82:3d:ce:10:14:55:8f:
        9f:17:08:4f:8c:59:22:8b:01:1d:87:66:60:19:41:2b:e8:4c:
        3e:e1:a5:8d:c6:6f:fa:80:66:94:5c:31:9d:e4:e3:58:a5:45:
        01:36
-----BEGIN CERTIFICATE-----
MIICkjCCAfugAwIBAgIBBDANBgkqhkiG9w0BAQsFADA2MQswCQYDVQQGEwJFVTEQ
MA4GA1UEChMHRU1JVGVzdDEVMBMGA1UEAxMMVGhlIHJvb3QgQ0ExMCAXDTEyMDQy
MzA4NTgxN1oYDzIxMTIxMDE2MDg1ODE3WjA8MQswCQYDVQQGEwJFVTEQMA4GA1UE
ChMHRU1JVGVzdDEbMBkGA1UEAxMSVGVzdFVzZXJXaXRoU0hBMjU2MIGfMA0GCSqG
SIb3DQEBAQUAA4GNADCBiQKBgQCtpiUkLKRp5YLBV1Pmfyhm8Z60SMPExuFgD3xZ
PD8DUR0rAjKlnBJj3Q4uivLgs9AQcFigRQUKH5RRwmE3HJdExFJK5Ptsok45PIWk
ayoPEP3V322/+YLLLssnjjuyl79lFyhGkOTIFCJFZeINbqMIblSSwlUZ56CP7ZdQ
3TZYhwIDAQABo4GnMIGkMAkGA1UdEwQCMAAwEQYJYIZIAYb4QgEBBAQDAgTwMAsG
A1UdDwQEAwIE8DA3BglghkgBhvhCAQ0EKhYoQ2VydGlmaWNhdGUgZ2VuZXJhdGVk
IGJ5IHRoZSBFTUlUZXN0IENBMTAdBgNVHQ4EFgQUXsHYbeXdr4S/ItoN9ZdZOGZL
FoUwHwYDVR0jBBgwFoAUUP22dsq1nAnDkSAK/lR6EWdZuAwwDQYJKoZIhvcNAQEL
BQADgYEAFZy6lPX8gvdGVlazMZyLsxqeo0bxdXjxskDa6eFa/VEJLtKgFpREzY9g
TycTwJ1ahbU4lkbwrMo668VFIoO7VAVclN5II1gOvWpbYJZMygjZgauCPc4QFFWP
nxcIT4xZIosBHYdmYBlBK+hMPuGljcZv+oBmlFwxneTjWKVFATY=
-----END CERTIFICATE-----
