Certificate:
    Data:
        Version: 3 (0x2)
        Serial Number: 5 (0x5)
        Signature Algorithm: sha384WithRSAEncryption
        Issuer: C=EU, O=EMITest, CN=The root CA1
        Validity
            Not Before: Apr 23 08:59:19 2012 GMT
            Not After : Oct 16 08:59:19 2112 GMT
        Subject: C=EU, O=EMITest, CN=TestUserWithSHA384
        Subject Public Key Info:
            Public Key Algorithm: rsaEncryption
                Public-Key: (1024 bit)
                Modulus:
                    00:bb:26:2d:69:7a:d3:31:6c:f0:ff:41:16:2b:a8:
                    56:bf:92:e1:06:c9:fa:06:38:ff:2a:d1:3a:e0:5e:
                    39:43:60:08:a3:f2:65:70:5b:85:61:44:20:91:2a:
                    bd:00:9e:9d:cc:5a:e9:36:0e:ee:72:7b:58:57:6b:
                    c4:f8:ef:2a:91:4e:4c:41:a5:72:5c:11:b8:28:7e:
                    71:4a:b9:fc:8e:00:dd:1e:07:1a:e1:82:35:9c:a7:
                    ad:ed:3a:79:42:d9:ed:b6:72:0f:ab:f5:49:22:de:
                    40:c4:1f:db:87:be:2c:21:1e:73:3e:a5:dc:61:06:
                    65:14:0b:c9:a5:89:2d:cc:7d
                Exponent: 65537 (0x10001)
        X509v3 extensions:
            X509v3 Basic Constraints: 
                CA:FALSE
            Netscape Cert Type: 
                SSL Client, SSL Server, S/MIME, Object Signing
            X509v3 Key Usage: 
                Digital Signature, Non Repudiation, Key Encipherment, Data Encipherment
            Netscape Comment: 
                Certificate generated by the EMITest CA1
            X509v3 Subject Key Identifier: 
                70:9B:10:FD:09:42:31:E3:4F:3B:5F:6A:A6:A8:ED:34:02:EB:97:24
            X509v3 Authority Key Identifier: 
                keyid:50:FD:B6:76:CA:B5:9C:09:C3:91:20:0A:FE:54:7A:11:67:59:B8:0C

    Signature Algorithm: sha384WithRSAEncryption
        60:32:e2:c2:a3:07:03:a8:d4:e2:5e:ed:1d:ee:be:fc:bb:58:
        41:a0:5d:fc:3d:71:69:b3:68:87:63:e4:17:f4:a6:52:31:b1:
        12:94:82:19:ce:b4:95:08:c8:b7:4c:bb:c2:97:ba:6f:5d:39:
        62:1a:5c:79:ce:be:ad:71:0c:66:d0:86:a0:c4:5d:11:0d:85:
        24:ed:68:5c:22:08:56:f7:e8:1a:40:01:a9:0b:8d:36:30:3c:
        3c:5d:47:9e:46:6c:5b:31:69:dc:b8:49:7e:87:4f:8b:e6:36:
        d6:9d:6d:55:91:d3:8c:71:f1:cb:3a:b1:f7:fb:8e:8d:4b:bd:
        71:49
-----BEGIN CERTIFICATE-----
MIICkjCCAfugAwIBAgIBBTANBgkqhkiG9w0BAQwFADA2MQswCQYDVQQGEwJFVTEQ
MA4GA1UEChMHRU1JVGVzdDEVMBMGA1UEAxMMVGhlIHJvb3QgQ0ExMCAXDTEyMDQy
MzA4NTkxOVoYDzIxMTIxMDE2MDg1OTE5WjA8MQswCQYDVQQGEwJFVTEQMA4GA1UE
ChMHRU1JVGVzdDEbMBkGA1UEAxMSVGVzdFVzZXJXaXRoU0hBMzg0MIGfMA0GCSqG
SIb3DQEBAQUAA4GNADCBiQKBgQC7Ji1petMxbPD/QRYrqFa/kuEGyfoGOP8q0Trg
XjlDYAij8mVwW4VhRCCRKr0Anp3MWuk2Du5ye1hXa8T47yqRTkxBpXJcEbgofnFK
ufyOAN0eBxrhgjWcp63tOnlC2e22cg+r9Uki3kDEH9uHviwhHnM+pdxhBmUUC8ml
iS3MfQIDAQABo4GnMIGkMAkGA1UdEwQCMAAwEQYJYIZIAYb4QgEBBAQDAgTwMAsG
A1UdDwQEAwIE8DA3BglghkgBhvhCAQ0EKhYoQ2VydGlmaWNhdGUgZ2VuZXJhdGVk
IGJ5IHRoZSBFTUlUZXN0IENBMTAdBgNVHQ4EFgQUcJsQ/QlCMeNPO19qpqjtNALr
lyQwHwYDVR0jBBgwFoAUUP22dsq1nAnDkSAK/lR6EWdZuAwwDQYJKoZIhvcNAQEM
BQADgYEAYDLiwqMHA6jU4l7tHe6+/LtYQaBd/D1xabNoh2PkF/SmUjGxEpSCGc60
lQjIt0y7wpe6b105Yhpcec6+rXEMZtCGoMRdEQ2FJO1oXCIIVvfoGkABqQuNNjA8
PF1HnkZsWzFp3LhJfodPi+Y21p1tVZHTjHHxyzqx9/uOjUu9cUk=
-----END CERTIFICATE-----
