Certificate:
    Data:
        Version: 3 (0x2)
        Serial Number: 1 (0x1)
        Signature Algorithm: sha1WithRSAEncryption
        Issuer: C=EU, O=EMITest, CN=The root CA1
        Validity
            Not Before: Dec 21 16:19:30 2011 GMT
            Not After : Jun 14 16:19:30 2112 GMT
        Subject: C=EU, O=EMITest, CN=Issued By Refreshed CA
        Subject Public Key Info:
            Public Key Algorithm: rsaEncryption
                Public-Key: (1024 bit)
                Modulus:
                    00:c4:76:3a:a3:09:d4:f5:50:c3:6e:9a:ed:d2:12:
                    5c:c9:2f:7d:6c:df:f1:93:9a:51:a7:b7:32:43:5e:
                    68:b8:29:e5:fd:4d:cb:dc:d0:ba:2a:28:df:0c:ae:
                    b2:c4:16:bd:f4:f1:27:d5:db:df:73:1d:c3:4c:79:
                    5f:17:00:6d:0a:f8:f0:89:d5:49:3e:a5:1e:3a:70:
                    bb:ce:76:aa:c7:ed:27:b6:55:99:63:76:ea:83:5d:
                    a3:85:53:a0:71:44:11:c5:83:10:a3:ba:04:e4:53:
                    01:1a:ca:fd:16:d1:2b:99:46:73:e8:f4:fe:ea:24:
                    cd:39:d5:f8:c4:35:a5:a0:63
                Exponent: 65537 (0x10001)
        X509v3 extensions:
            X509v3 Basic Constraints: 
                CA:FALSE
            Netscape Cert Type: 
                SSL Client, SSL Server, S/MIME, Object Signing
            X509v3 Key Usage: 
                Digital Signature, Non Repudiation, Key Encipherment, Data Encipherment
            Netscape Comment: 
                Certificate generated by the EMITest CA1
            X509v3 Subject Key Identifier: 
                95:81:9E:63:F7:80:80:B0:45:10:77:F2:C4:91:BB:71:A1:C8:BD:CF
            X509v3 Authority Key Identifier: 
                keyid:B4:5B:9D:2A:7B:FA:85:2D:F9:AF:B8:8C:4B:16:67:DE:20:2D:D1:14

    Signature Algorithm: sha1WithRSAEncryption
        27:b1:e0:c3:17:6c:5e:55:0d:75:77:10:5c:4c:ed:b0:c3:28:
        2f:68:fd:bc:65:f4:29:4b:06:8a:2c:07:96:08:10:a2:65:19:
        c2:91:43:2c:c3:3f:13:20:02:52:8b:62:1a:21:bf:62:b3:c5:
        fc:23:3f:3a:12:ce:e7:3e:e4:9d:24:5c:d2:20:ae:71:19:4b:
        ca:b2:cd:37:34:1e:76:00:45:f8:9a:d4:68:14:89:12:3c:a2:
        32:84:4b:76:fe:5d:40:06:5b:77:c8:65:e3:2e:93:d8:65:91:
        3c:d6:5c:93:5d:ba:18:64:9c:f7:d9:83:73:83:69:ce:50:46:
        f4:f1
-----BEGIN CERTIFICATE-----
MIICljCCAf+gAwIBAgIBATANBgkqhkiG9w0BAQUFADA2MQswCQYDVQQGEwJFVTEQ
MA4GA1UEChMHRU1JVGVzdDEVMBMGA1UEAxMMVGhlIHJvb3QgQ0ExMCAXDTExMTIy
MTE2MTkzMFoYDzIxMTIwNjE0MTYxOTMwWjBAMQswCQYDVQQGEwJFVTEQMA4GA1UE
ChMHRU1JVGVzdDEfMB0GA1UEAxMWSXNzdWVkIEJ5IFJlZnJlc2hlZCBDQTCBnzAN
BgkqhkiG9w0BAQEFAAOBjQAwgYkCgYEAxHY6ownU9VDDbprt0hJcyS99bN/xk5pR
p7cyQ15ouCnl/U3L3NC6KijfDK6yxBa99PEn1dvfcx3DTHlfFwBtCvjwidVJPqUe
OnC7znaqx+0ntlWZY3bqg12jhVOgcUQRxYMQo7oE5FMBGsr9FtErmUZz6PT+6iTN
OdX4xDWloGMCAwEAAaOBpzCBpDAJBgNVHRMEAjAAMBEGCWCGSAGG+EIBAQQEAwIE
8DALBgNVHQ8EBAMCBPAwNwYJYIZIAYb4QgENBCoWKENlcnRpZmljYXRlIGdlbmVy
YXRlZCBieSB0aGUgRU1JVGVzdCBDQTEwHQYDVR0OBBYEFJWBnmP3gICwRRB38sSR
u3GhyL3PMB8GA1UdIwQYMBaAFLRbnSp7+oUt+a+4jEsWZ94gLdEUMA0GCSqGSIb3
DQEBBQUAA4GBACex4MMXbF5VDXV3EFxM7bDDKC9o/bxl9ClLBoosB5YIEKJlGcKR
QyzDPxMgAlKLYhohv2KzxfwjPzoSzuc+5J0kXNIgrnEZS8qyzTc0HnYARfia1GgU
iRI8ojKES3b+XUAGW3fIZeMuk9hlkTzWXJNduhhknPfZg3ODac5QRvTx
-----END CERTIFICATE-----
