Certificate:
    Data:
        Version: 3 (0x2)
        Serial Number: 6 (0x6)
        Signature Algorithm: sha512WithRSAEncryption
        Issuer: C=EU, O=EMITest, CN=The root CA1
        Validity
            Not Before: Apr 23 09:00:26 2012 GMT
            Not After : Oct 16 09:00:26 2112 GMT
        Subject: C=EU, O=EMITest, CN=TestUserWithSHA512
        Subject Public Key Info:
            Public Key Algorithm: rsaEncryption
                Public-Key: (1024 bit)
                Modulus:
                    00:cb:a3:a9:fd:54:49:76:b1:a6:01:2f:73:c1:1f:
                    e6:d7:a4:62:db:99:6c:dc:8e:fd:20:c5:09:19:dd:
                    63:f1:f7:eb:f1:b1:62:8c:99:3a:f4:dc:a8:a3:4d:
                    95:78:0f:7a:0f:66:a4:af:b0:71:05:fd:6e:1a:f1:
                    b8:ee:0c:38:95:9d:72:b4:8c:d2:36:7d:73:b1:b8:
                    43:91:0c:e6:99:2b:bf:be:a8:9d:22:4f:a5:12:9e:
                    19:b3:31:7d:04:a2:05:8c:35:ff:49:69:4b:3d:33:
                    37:eb:03:72:5a:65:33:b6:7b:85:c3:4a:f3:70:af:
                    35:77:f5:49:c7:85:6b:6e:15
                Exponent: 65537 (0x10001)
        X509v3 extensions:
            X509v3 Basic Constraints: 
                CA:FALSE
            Netscape Cert Type: 
                SSL Client, SSL Server, S/MIME, Object Signing
            X509v3 Key Usage: 
                Digital Signature, Non Repudiation, Key Encipherment, Data Encipherment
            Netscape Comment: 
                Certificate generated by the EMITest CA1
            X509v3 Subject Key Identifier: 
                B7:DF:88:75:E5:1F:06:7E:FE:FD:CA:54:E2:C8:5D:68:C9:B0:40:7F
            X509v3 Authority Key Identifier: 
                keyid:50:FD:B6:76:CA:B5:9C:09:C3:91:20:0A:FE:54:7A:11:67:59:B8:0C

    Signature Algorithm: sha512WithRSAEncryption
        09:e2:c5:21:5a:69:f0:9a:ff:01:d1:69:ee:21:67:25:19:6e:
        d4:b4:c4:31:ff:b8:64:36:f1:c7:b2:55:57:d3:50:7d:d6:b2:
        5b:b3:51:c7:1f:48:a6:0f:ef:34:56:dc:e0:ab:18:68:d0:59:
        a6:cd:6c:77:e7:7f:c0:f8:b4:0d:1a:e3:82:63:93:d2:99:8d:
        a5:a4:39:b6:a3:d1:a6:cf:fb:06:2b:dc:7d:55:98:cb:a5:6d:
        6f:de:f6:81:22:28:35:d4:ee:46:bb:1c:f5:67:d6:f7:20:fa:
        25:cf:b7:96:dd:3a:5b:e8:50:c7:52:12:36:0f:2d:be:11:43:
        de:73
-----BEGIN CERTIFICATE-----
MIICkjCCAfugAwIBAgIBBjANBgkqhkiG9w0BAQ0FADA2MQswCQYDVQQGEwJFVTEQ
MA4GA1UEChMHRU1JVGVzdDEVMBMGA1UEAxMMVGhlIHJvb3QgQ0ExMCAXDTEyMDQy
MzA5MDAyNloYDzIxMTIxMDE2MDkwMDI2WjA8MQswCQYDVQQGEwJFVTEQMA4GA1UE
ChMHRU1JVGVzdDEbMBkGA1UEAxMSVGVzdFVzZXJXaXRoU0hBNTEyMIGfMA0GCSqG
SIb3DQEBAQUAA4GNADCBiQKBgQDLo6n9VEl2saYBL3PBH+bXpGLbmWzcjv0gxQkZ
3WPx9+vxsWKMmTr03KijTZV4D3oPZqSvsHEF/W4a8bjuDDiVnXK0jNI2fXOxuEOR
DOaZK7++qJ0iT6USnhmzMX0EogWMNf9JaUs9MzfrA3JaZTO2e4XDSvNwrzV39UnH
hWtuFQIDAQABo4GnMIGkMAkGA1UdEwQCMAAwEQYJYIZIAYb4QgEBBAQDAgTwMAsG
A1UdDwQEAwIE8DA3BglghkgBhvhCAQ0EKhYoQ2VydGlmaWNhdGUgZ2VuZXJhdGVk
IGJ5IHRoZSBFTUlUZXN0IENBMTAdBgNVHQ4EFgQUt9+IdeUfBn7+/cpU4shdaMmw
QH8wHwYDVR0jBBgwFoAUUP22dsq1nAnDkSAK/lR6EWdZuAwwDQYJKoZIhvcNAQEN
BQADgYEACeLFIVpp8Jr/AdFp7iFnJRlu1LTEMf+4ZDbxx7JVV9NQfdayW7NRxx9I
pg/vNFbc4KsYaNBZps1sd+d/wPi0DRrjgmOT0pmNpaQ5tqPRps/7BivcfVWYy6Vt
b972gSIoNdTuRrsc9WfW9yD6Jc+3lt06W+hQx1ISNg8tvhFD3nM=
-----END CERTIFICATE-----
