Certificate:
    Data:
        Version: 3 (0x2)
        Serial Number: 10358181936296441730 (0x8fbfa7974fd13782)
    Signature Algorithm: sha256WithRSAEncryption
        Issuer: C=XX, ST=XX, O=XX, CN=XX
        Validity
            Not Before: Sep 28 11:12:07 2015 GMT
            Not After : Sep 20 11:12:07 2045 GMT
        Subject: C=XX, ST=XX, O=XX, CN=XX
        Subject Public Key Info:
            Public Key Algorithm: rsaEncryption
                Public-Key: (2048 bit)
                Modulus:
                    00:b4:f7:ff:b4:91:9b:a7:06:ae:0f:29:31:86:f9:
                    94:74:7d:b4:b3:03:08:8d:40:d4:e4:3d:52:7b:89:
                    6a:5d:68:73:19:7d:96:ef:da:d5:75:e9:0a:56:88:
                    0a:d7:c5:8b:3f:1f:e0:8e:0f:45:ef:06:57:d1:7b:
                    82:96:be:42:4f:f5:21:30:aa:c3:f4:b1:04:e8:2a:
                    9c:f1:9f:87:73:a0:be:c2:0d:16:52:5c:c2:e2:90:
                    73:6b:fb:ca:83:d2:d7:15:e0:b7:40:60:03:e0:67:
                    e4:e9:29:ea:b9:81:fd:a5:d7:a3:0c:9a:6c:29:ac:
                    a4:09:b8:bf:16:6c:bc:53:97:12:f2:a2:d2:e0:a1:
                    fc:6a:02:bb:dd:a1:0d:87:e1:af:1f:2c:ed:b9:c3:
                    4a:76:13:20:85:73:d9:e6:f8:96:27:32:4e:3a:42:
                    df:3d:26:b9:60:b5:23:d7:cc:f1:d5:b8:5d:11:70:
                    f0:1e:6f:4c:f9:e2:33:c8:65:c9:d9:2f:2d:39:13:
                    5b:3d:3d:af:f9:e3:99:aa:c8:a2:f3:1b:7d:17:b0:
                    3d:e5:e8:d1:9f:70:8e:f2:fe:67:19:51:fb:96:bb:
                    66:d8:72:06:d4:6f:fe:07:4a:32:c1:19:04:06:df:
                    12:08:8d:28:ac:1c:56:b9:4f:8c:b6:87:dc:c9:79:
                    28:41
                Exponent: 65537 (0x10001)
        X509v3 extensions:
            X509v3 Subject Key Identifier: 
                29:C8:35:56:75:C8:B3:7D:1A:A9:41:88:F7:C3:09:F5:97:5E:18:D1
            X509v3 Authority Key Identifier: 
                keyid:29:C8:35:56:75:C8:B3:7D:1A:A9:41:88:F7:C3:09:F5:97:5E:18:D1

            X509v3 Basic Constraints: 
                CA:TRUE
    Signature Algorithm: sha256WithRSAEncryption
         43:1b:f2:e1:4c:bb:05:ac:54:38:a3:76:97:36:c7:8d:1d:86:
         8c:4e:3f:60:d2:11:2a:37:e1:bf:53:9e:34:62:ca:1c:74:64:
         4f:67:a2:32:5c:00:18:26:45:17:ff:ce:b2:04:98:d5:0b:70:
         80:4f:29:10:c7:d3:f2:a7:ce:a1:fe:b3:74:d1:fc:d5:38:c7:
         23:4f:01:e6:c0:2a:4f:6d:21:ad:34:01:38:49:c1:46:7c:c2:
         ac:91:ce:fe:53:fb:b5:63:11:aa:cf:e0:21:4f:b8:19:b9:f8:
         f9:0e:b5:fe:a6:a5:04:52:ce:10:97:04:1d:dc:24:12:e7:5d:
         b2:75:e5:b7:b2:35:b2:14:5d:98:2d:08:f2:54:bb:17:a4:51:
         ee:64:91:cd:9b:15:f2:ff:89:6e:4d:9f:a7:81:3c:b8:b8:88:
         3d:29:c2:c7:8f:32:1e:cb:99:e6:91:af:68:f2:c4:fb:fd:06:
         2b:b5:b3:fd:84:80:fe:4b:06:c2:22:2c:ab:2a:f4:a6:65:26:
         65:a7:12:00:df:65:24:25:93:0e:2d:4c:0c:8a:b5:07:27:9a:
         aa:3f:cd:93:29:50:8b:d3:64:00:50:8c:b9:97:31:7d:6e:d1:
         fb:be:5c:77:e3:06:50:6c:82:fb:f2:75:f5:20:3f:bc:f1:e2:
         ab:26:2b:23
-----BEGIN CERTIFICATE-----
MIIDOzCCAiOgAwIBAgIJAI+/p5dP0TeCMA0GCSqGSIb3DQEBCwUAMDQxCzAJBgNV
BAYTAlhYMQswCQYDVQQIDAJYWDELMAkGA1UECgwCWFgxCzAJBgNVBAMMAlhYMB4X
DTE1MDkyODExMTIwN1oXDTQ1MDkyMDExMTIwN1owNDELMAkGA1UEBhMCWFgxCzAJ
BgNVBAgMAlhYMQswCQYDVQQKDAJYWDELMAkGA1UEAwwCWFgwggEiMA0GCSqGSIb3
DQEBAQUAA4IBDwAwggEKAoIBAQC09/+0kZunBq4PKTGG+ZR0fbSzAwiNQNTkPVJ7
iWpdaHMZfZbv2tV16QpWiArXxYs/H+COD0XvBlfRe4KWvkJP9SEwqsP0sQToKpzx
n4dzoL7CDRZSXMLikHNr+8qD0tcV4LdAYAPgZ+TpKeq5gf2l16MMmmwprKQJuL8W
bLxTlxLyotLgofxqArvdoQ2H4a8fLO25w0p2EyCFc9nm+JYnMk46Qt89JrlgtSPX
zPHVuF0RcPAeb0z54jPIZcnZLy05E1s9Pa/545mqyKLzG30XsD3l6NGfcI7y/mcZ
UfuWu2bYcgbUb/4HSjLBGQQG3xIIjSisHFa5T4y2h9zJeShBAgMBAAGjUDBOMB0G
A1UdDgQWBBQpyDVWdcizfRqpQYj3wwn1l14Y0TAfBgNVHSMEGDAWgBQpyDVWdciz
fRqpQYj3wwn1l14Y0TAMBgNVHRMEBTADAQH/MA0GCSqGSIb3DQEBCwUAA4IBAQBD
G/LhTLsFrFQ4o3aXNseNHYaMTj9g0hEqN+G/U540YsocdGRPZ6IyXAAYJkUX/86y
BJjVC3CATykQx9Pyp86h/rN00fzVOMcjTwHmwCpPbSGtNAE4ScFGfMKskc7+U/u1
YxGqz+AhT7gZufj5DrX+pqUEUs4QlwQd3CQS512ydeW3sjWyFF2YLQjyVLsXpFHu
ZJHNmxXy/4luTZ+ngTy4uIg9KcLHjzIey5nmka9o8sT7/QYrtbP9hID+SwbCIiyr
KvSmZSZlpxIA32UkJZMOLUwMirUHJ5qqP82TKVCL02QAUIy5lzF9btH7vlx34wZQ
bIL78nX1ID+88eKrJisj
-----END CERTIFICATE-----
