Certificate:
    Data:
        Version: 3 (0x2)
        Serial Number: 10358181936296441731 (0x8fbfa7974fd13783)
    Signature Algorithm: sha256WithRSAEncryption
        Issuer: C=XX, ST=XX, O=XX, CN=XX
        Validity
            Not Before: Sep 28 11:13:10 2015 GMT
            Not After : Sep 25 11:13:10 2025 GMT
        Subject: C=XX, L=Default City, O=Default Company Ltd, CN=XXX
        Subject Public Key Info:
            Public Key Algorithm: rsaEncryption
                Public-Key: (2048 bit)
                Modulus:
                    00:c4:b6:d0:86:68:aa:c1:53:60:72:70:b5:99:dc:
                    ca:d7:e2:7d:81:3d:ea:9b:01:54:a4:3f:30:6b:04:
                    63:b5:e3:1f:3c:39:57:28:98:a2:8a:d6:19:15:95:
                    4c:4b:48:09:29:b4:5c:fc:64:93:bf:e6:09:dc:8a:
                    10:7c:fa:3a:21:a9:ed:9e:72:be:dc:6e:45:8e:d0:
                    e4:7c:6e:35:2b:06:3c:30:32:f5:70:e9:c8:30:ae:
                    a1:61:95:a6:16:fe:e8:c9:00:18:15:b1:af:c7:10:
                    24:0f:f7:b1:e3:10:ac:65:ba:f1:2a:de:97:d4:08:
                    2d:0d:e0:de:38:54:5a:8c:38:95:9b:1c:5b:42:bc:
                    6f:1e:dd:e3:93:cc:01:3c:fd:28:5e:4b:cc:ff:01:
                    15:c1:6d:44:60:28:32:b9:f6:0b:17:f9:2a:08:38:
                    f6:1b:44:ba:8b:aa:99:13:43:49:9c:5e:bc:d5:d3:
                    1c:82:99:0c:d0:1d:76:2b:35:20:bc:94:92:b1:4c:
                    f1:64:f0:03:89:a1:de:6c:de:8f:0a:43:ef:64:3e:
                    aa:6d:b0:18:e8:5d:eb:b1:94:39:03:f1:a0:08:29:
                    77:24:bf:66:9b:af:39:22:61:85:3b:b5:72:a0:98:
                    d1:76:68:11:4a:5e:a2:c2:9b:01:4f:a3:14:08:a3:
                    de:0d
                Exponent: 65537 (0x10001)
        X509v3 extensions:
            X509v3 Basic Constraints: 
                CA:FALSE
            Netscape Comment: 
                OpenSSL Generated Certificate
            X509v3 Subject Key Identifier: 
                38:AE:9F:C9:3F:37:9F:FD:C7:0A:23:8A:A2:11:AB:A9:83:F6:3F:07
            X509v3 Authority Key Identifier: 
                keyid:29:C8:35:56:75:C8:B3:7D:1A:A9:41:88:F7:C3:09:F5:97:5E:18:D1

    Signature Algorithm: sha256WithRSAEncryption
         90:65:25:a9:63:a7:8d:31:6b:71:67:bf:18:68:3a:15:57:02:
         b8:1c:8d:14:5b:ee:1b:dd:97:97:90:81:e8:ce:9d:5a:de:32:
         a0:48:81:16:b1:c2:0d:2a:0b:71:42:29:cc:15:2b:53:86:cf:
         95:04:a1:94:7e:63:8e:26:e3:4b:14:5e:35:84:55:d7:ee:ab:
         31:8e:30:f4:b1:8f:8a:44:c4:43:78:07:76:a0:64:5a:e4:c6:
         1c:26:8d:76:a1:c8:19:e5:bb:30:52:b8:fb:1a:a8:9c:41:76:
         61:f7:27:3f:fc:1b:ef:fb:05:c9:3c:e1:ac:16:d5:8a:3b:c7:
         15:89:93:1d:02:ab:f7:7c:fc:26:4d:df:b4:dc:7f:f1:a8:32:
         4e:88:dc:35:58:70:a6:4d:5c:22:0f:2b:e0:b7:6e:f9:16:6f:
         94:a6:ce:f2:b8:50:9b:af:4a:1e:2d:4b:7b:1b:38:50:ef:19:
         d2:d0:c8:25:1f:ff:dc:45:05:b1:f6:6f:14:d9:b1:6e:70:4c:
         d4:91:ec:4b:88:ca:64:9b:d0:0b:65:8c:86:f3:d6:c7:b8:49:
         dd:74:06:e3:96:45:9f:43:06:78:28:2e:a5:bb:f2:ba:b7:d6:
         52:d0:ec:fc:41:9f:86:5a:39:14:28:25:a2:dc:fc:f8:17:ee:
         c8:8c:31:eb
-----BEGIN CERTIFICATE-----
MIIDgjCCAmqgAwIBAgIJAI+/p5dP0TeDMA0GCSqGSIb3DQEBCwUAMDQxCzAJBgNV
BAYTAlhYMQswCQYDVQQIDAJYWDELMAkGA1UECgwCWFgxCzAJBgNVBAMMAlhYMB4X
DTE1MDkyODExMTMxMFoXDTI1MDkyNTExMTMxMFowUDELMAkGA1UEBhMCWFgxFTAT
BgNVBAcMDERlZmF1bHQgQ2l0eTEcMBoGA1UECgwTRGVmYXVsdCBDb21wYW55IEx0
ZDEMMAoGA1UEAwwDWFhYMIIBIjANBgkqhkiG9w0BAQEFAAOCAQ8AMIIBCgKCAQEA
xLbQhmiqwVNgcnC1mdzK1+J9gT3qmwFUpD8wawRjteMfPDlXKJiiitYZFZVMS0gJ
KbRc/GSTv+YJ3IoQfPo6IantnnK+3G5FjtDkfG41KwY8MDL1cOnIMK6hYZWmFv7o
yQAYFbGvxxAkD/ex4xCsZbrxKt6X1AgtDeDeOFRajDiVmxxbQrxvHt3jk8wBPP0o
XkvM/wEVwW1EYCgyufYLF/kqCDj2G0S6i6qZE0NJnF681dMcgpkM0B12KzUgvJSS
sUzxZPADiaHebN6PCkPvZD6qbbAY6F3rsZQ5A/GgCCl3JL9mm685ImGFO7VyoJjR
dmgRSl6iwpsBT6MUCKPeDQIDAQABo3sweTAJBgNVHRMEAjAAMCwGCWCGSAGG+EIB
DQQfFh1PcGVuU1NMIEdlbmVyYXRlZCBDZXJ0aWZpY2F0ZTAdBgNVHQ4EFgQUOK6f
yT83n/3HCiOKohGrqYP2PwcwHwYDVR0jBBgwFoAUKcg1VnXIs30aqUGI98MJ9Zde
GNEwDQYJKoZIhvcNAQELBQADggEBAJBlJaljp40xa3FnvxhoOhVXArgcjRRb7hvd
l5eQgejOnVreMqBIgRaxwg0qC3FCKcwVK1OGz5UEoZR+Y44m40sUXjWEVdfuqzGO
MPSxj4pExEN4B3agZFrkxhwmjXahyBnluzBSuPsaqJxBdmH3Jz/8G+/7Bck84awW
1Yo7xxWJkx0Cq/d8/CZN37Tcf/GoMk6I3DVYcKZNXCIPK+C3bvkWb5SmzvK4UJuv
Sh4tS3sbOFDvGdLQyCUf/9xFBbH2bxTZsW5wTNSR7EuIymSb0AtljIbz1se4Sd10
BuOWRZ9DBngoLqW78rq31lLQ7PxBn4ZaORQoJaLc/PgX7siMMes=
-----END CERTIFICATE-----
