Certificate:
    Data:
        Version: 3 (0x2)
        Serial Number: 1 (0x1)
        Signature Algorithm: sha1WithRSAEncryption
        Issuer: C=IT, ST=Test, L=Bologna, O=Voms-Admin, OU=Voms-Admin testing, CN=Test CA
        Validity
            Not Before: Jul  1 16:25:54 2010 GMT
            Not After : Jul  1 16:25:54 2011 GMT
        Subject: C=IT, ST=Test, O=Voms-Admin, OU=Voms-Admin testing, CN=wilco.cnaf.infn.it/emailAddress=andrea.ceccanti@cnaf.infn.it
        Subject Public Key Info:
            Public Key Algorithm: rsaEncryption
            RSA Public Key: (1024 bit)
                Modulus (1024 bit):
                    00:c9:97:e2:f6:3b:37:dd:32:89:68:ae:d7:03:54:
                    7e:20:12:78:9c:e8:20:98:2b:57:f5:db:19:08:17:
                    32:8f:86:cf:35:11:26:e5:08:de:7d:be:86:da:bf:
                    48:48:91:22:2c:06:4c:d6:02:83:02:22:26:70:b3:
                    b8:5b:ea:ef:7d:94:5f:93:c2:e1:2d:a0:d9:bc:92:
                    d0:12:89:dc:35:c9:dd:0a:5b:c7:4f:15:56:1b:35:
                    22:ff:8d:6e:b6:3f:12:26:65:35:c4:39:42:54:13:
                    99:8e:37:89:12:fe:b0:ce:b8:45:b2:f1:62:5d:45:
                    53:42:b5:55:65:ef:a1:56:09
                Exponent: 65537 (0x10001)
        X509v3 extensions:
            X509v3 Basic Constraints: 
                CA:FALSE
            Netscape Comment: 
                OpenSSL Generated Certificate
            X509v3 Subject Key Identifier: 
                15:55:8C:24:7A:5A:1E:20:2E:30:20:28:1A:9A:14:76:FC:7E:27:D2
            X509v3 Authority Key Identifier: 
                keyid:C7:73:5E:CC:BA:C1:52:FD:DC:A8:FA:CE:B2:40:FA:70:B9:47:12:F2

    Signature Algorithm: sha1WithRSAEncryption
        30:8b:6b:fe:4a:e1:25:ff:5a:b3:f7:ea:ca:9f:45:1c:ed:b3:
        60:de:9e:fc:47:ef:af:c3:fd:27:73:21:87:56:d0:28:c3:9b:
        fd:24:ce:e5:dc:ba:2a:a1:a0:6d:90:f2:d5:9b:8b:94:55:31:
        5a:54:ab:a9:c4:d8:95:29:c1:9c:fc:16:2d:5b:c4:2f:cc:c0:
        26:34:1c:2d:70:71:86:29:82:53:15:26:22:7b:90:71:bc:3d:
        ab:92:fa:b3:1b:05:64:e0:0f:79:0c:39:92:5a:35:51:93:a5:
        9d:4a:2e:d7:13:02:43:1e:39:e3:b1:0c:df:6d:24:34:20:df:
        17:8e
-----BEGIN CERTIFICATE-----
MIIC/DCCAmWgAwIBAgIBATANBgkqhkiG9w0BAQUFADByMQswCQYDVQQGEwJJVDEN
MAsGA1UECBMEVGVzdDEQMA4GA1UEBxMHQm9sb2duYTETMBEGA1UEChMKVm9tcy1B
ZG1pbjEbMBkGA1UECxMSVm9tcy1BZG1pbiB0ZXN0aW5nMRAwDgYDVQQDEwdUZXN0
IENBMB4XDTEwMDcwMTE2MjU1NFoXDTExMDcwMTE2MjU1NFowgZgxCzAJBgNVBAYT
AklUMQ0wCwYDVQQIEwRUZXN0MRMwEQYDVQQKEwpWb21zLUFkbWluMRswGQYDVQQL
ExJWb21zLUFkbWluIHRlc3RpbmcxGzAZBgNVBAMTEndpbGNvLmNuYWYuaW5mbi5p
dDErMCkGCSqGSIb3DQEJARYcYW5kcmVhLmNlY2NhbnRpQGNuYWYuaW5mbi5pdDCB
nzANBgkqhkiG9w0BAQEFAAOBjQAwgYkCgYEAyZfi9js33TKJaK7XA1R+IBJ4nOgg
mCtX9dsZCBcyj4bPNREm5Qjefb6G2r9ISJEiLAZM1gKDAiImcLO4W+rvfZRfk8Lh
LaDZvJLQEoncNcndClvHTxVWGzUi/41utj8SJmU1xDlCVBOZjjeJEv6wzrhFsvFi
XUVTQrVVZe+hVgkCAwEAAaN7MHkwCQYDVR0TBAIwADAsBglghkgBhvhCAQ0EHxYd
T3BlblNTTCBHZW5lcmF0ZWQgQ2VydGlmaWNhdGUwHQYDVR0OBBYEFBVVjCR6Wh4g
LjAgKBqaFHb8fifSMB8GA1UdIwQYMBaAFMdzXsy6wVL93Kj6zrJA+nC5RxLyMA0G
CSqGSIb3DQEBBQUAA4GBADCLa/5K4SX/WrP36sqfRRzts2DenvxH76/D/SdzIYdW
0CjDm/0kzuXcuiqhoG2Q8tWbi5RVMVpUq6nE2JUpwZz8Fi1bxC/MwCY0HC1wcYYp
glMVJiJ7kHG8PauS+rMbBWTgD3kMOZJaNVGTpZ1KLtcTAkMeOeOxDN9tJDQg3xeO
-----END CERTIFICATE-----
