Certificate:
    Data:
        Version: 3 (0x2)
        Serial Number: 374 (0x176)
        Signature Algorithm: md5WithRSAEncryption
        Issuer: C=UG, L=Tropic, O=Utopia, OU=Relaxation, CN=the root CA
        Validity
            Not Before: Dec 16 17:23:13 2010 GMT
            Not After : May  3 17:23:13 2038 GMT
        Subject: C=UG, L=Tropic, O=Utopia, OU=Relaxation, CN=the subca CA
        Subject Public Key Info:
            Public Key Algorithm: rsaEncryption
            RSA Public Key: (1024 bit)
                Modulus (1024 bit):
                    00:a6:02:9e:e7:e5:25:2f:a0:b7:60:7c:a6:99:2d:
                    32:34:6e:c7:bd:11:c5:ca:ac:fd:65:08:de:d8:4e:
                    58:b7:19:d6:d7:53:67:9f:3c:76:ab:65:a1:db:5f:
                    4f:83:cc:5e:b3:14:73:c0:58:06:4e:10:96:c2:71:
                    20:f0:c3:43:d5:82:ea:f4:bc:ce:d3:a1:17:7f:b1:
                    2e:a5:2a:cd:67:36:a1:00:28:39:fe:29:95:c8:b9:
                    d2:60:35:0f:96:ec:6b:00:d4:1d:ae:73:8f:e5:47:
                    42:95:16:f1:9f:0a:f6:a0:f5:5a:cb:85:81:15:b2:
                    3c:21:ab:4d:cc:b1:52:52:dd
                Exponent: 65537 (0x10001)
        X509v3 extensions:
            X509v3 Basic Constraints: 
                CA:TRUE
            X509v3 Subject Key Identifier: 
                72:E2:1C:DF:FA:13:48:67:BA:80:EF:59:BC:ED:EC:15:77:61:AF:CC
            X509v3 Authority Key Identifier: 
                keyid:D2:E1:04:7E:8D:73:54:53:49:C5:53:AD:1E:84:D9:8A:00:0B:6A:6F
                DirName:/C=UG/L=Tropic/O=Utopia/OU=Relaxation/CN=the root CA
                serial:A3:51:C2:F8:DD:7F:B9:9A

            X509v3 Key Usage: critical
                Certificate Sign, CRL Sign
    Signature Algorithm: md5WithRSAEncryption
        77:fb:7d:ed:41:72:9a:44:a3:aa:c1:fd:45:09:67:2a:46:a9:
        d9:72:5d:9a:d8:e3:0d:fe:2b:c7:62:4c:14:04:45:0f:34:a8:
        39:a0:e0:b9:70:74:74:e1:99:da:6a:e7:e8:cc:07:56:b9:a6:
        38:24:46:74:e1:a9:55:02:c0:5a:cf:78:9b:d7:95:76:2f:68:
        36:87:1b:8a:97:80:77:24:5b:6f:db:ec:a3:fc:88:50:3d:be:
        f0:e1:ac:6d:1f:02:61:63:d4:8d:88:98:ca:de:0a:da:0e:36:
        19:ea:a6:1c:c1:fa:7c:d1:30:bc:d2:ee:6e:10:15:17:44:fb:
        53:52
-----BEGIN CERTIFICATE-----
MIIC/DCCAmWgAwIBAgICAXYwDQYJKoZIhvcNAQEEBQAwWjELMAkGA1UEBhMCVUcx
DzANBgNVBAcTBlRyb3BpYzEPMA0GA1UEChMGVXRvcGlhMRMwEQYDVQQLEwpSZWxh
eGF0aW9uMRQwEgYDVQQDEwt0aGUgcm9vdCBDQTAeFw0xMDEyMTYxNzIzMTNaFw0z
ODA1MDMxNzIzMTNaMFsxCzAJBgNVBAYTAlVHMQ8wDQYDVQQHEwZUcm9waWMxDzAN
BgNVBAoTBlV0b3BpYTETMBEGA1UECxMKUmVsYXhhdGlvbjEVMBMGA1UEAxMMdGhl
IHN1YmNhIENBMIGfMA0GCSqGSIb3DQEBAQUAA4GNADCBiQKBgQCmAp7n5SUvoLdg
fKaZLTI0bse9EcXKrP1lCN7YTli3GdbXU2efPHarZaHbX0+DzF6zFHPAWAZOEJbC
cSDww0PVgur0vM7ToRd/sS6lKs1nNqEAKDn+KZXIudJgNQ+W7GsA1B2uc4/lR0KV
FvGfCvag9VrLhYEVsjwhq03MsVJS3QIDAQABo4HPMIHMMAwGA1UdEwQFMAMBAf8w
HQYDVR0OBBYEFHLiHN/6E0hnuoDvWbzt7BV3Ya/MMIGMBgNVHSMEgYQwgYGAFNLh
BH6Nc1RTScVTrR6E2YoAC2pvoV6kXDBaMQswCQYDVQQGEwJVRzEPMA0GA1UEBxMG
VHJvcGljMQ8wDQYDVQQKEwZVdG9waWExEzARBgNVBAsTClJlbGF4YXRpb24xFDAS
BgNVBAMTC3RoZSByb290IENBggkAo1HC+N1/uZowDgYDVR0PAQH/BAQDAgEGMA0G
CSqGSIb3DQEBBAUAA4GBAHf7fe1BcppEo6rB/UUJZypGqdlyXZrY4w3+K8diTBQE
RQ80qDmg4LlwdHThmdpq5+jMB1a5pjgkRnThqVUCwFrPeJvXlXYvaDaHG4qXgHck
W2/b7KP8iFA9vvDhrG0fAmFj1I2ImMreCtoONhnqphzB+nzRMLzS7m4QFRdE+1NS
-----END CERTIFICATE-----
