Certificate:
    Data:
        Version: 1 (0x0)
        Serial Number: 1 (0x1)
        Signature Algorithm: sha1WithRSAEncryption
        Issuer: C=EU, O=EMITest, CN=V1 CA
        Validity
            Not Before: Dec 21 18:25:02 2011 GMT
            Not After : Jun 14 18:25:02 2112 GMT
        Subject: C=EU, O=EMITest, CN=UserV1
        Subject Public Key Info:
            Public Key Algorithm: rsaEncryption
                Public-Key: (1024 bit)
                Modulus:
                    00:be:c9:8e:21:84:b9:3e:42:80:51:17:dc:76:0a:
                    2b:fa:05:23:d0:9e:92:6b:68:6c:6b:92:aa:a6:2d:
                    e9:5f:c4:e9:51:00:6e:12:1b:be:6b:b2:a8:5c:c0:
                    e6:4c:41:ce:5c:ad:ca:11:08:66:0e:94:c3:2b:e0:
                    fa:d4:e4:34:c4:aa:e9:d9:36:a3:27:a7:58:45:f0:
                    3f:7e:9f:a1:7b:88:69:f9:12:e9:b1:10:4c:29:3c:
                    e0:dc:65:ef:ba:20:60:4e:4b:cd:ba:a4:b5:75:b8:
                    2d:a1:bc:5a:e5:9a:96:43:b8:bd:bf:ed:ff:d2:9e:
                    49:d1:9f:b9:ca:c6:88:5d:23
                Exponent: 65537 (0x10001)
    Signature Algorithm: sha1WithRSAEncryption
        7b:42:6d:a7:94:9e:16:02:fe:4d:dd:93:87:f6:70:37:18:aa:
        53:03:41:0f:2a:75:7a:84:99:de:08:1d:34:1c:e0:fb:e9:ad:
        60:bd:79:ad:f3:44:8a:a9:b6:7c:06:b8:7f:07:86:9a:dd:18:
        42:0d:75:e1:31:ff:98:16:c0:7e:1c:56:53:3a:f9:17:ea:11:
        ee:db:17:93:6b:af:05:9c:6e:52:42:bd:bf:b1:ea:77:e3:d0:
        dc:8c:28:6c:d4:1a:ff:a1:5a:cb:b3:47:7d:48:86:5d:a2:3f:
        11:df:ae:26:81:73:93:d7:e7:51:7d:34:1b:10:2c:94:49:8a:
        57:ae
-----BEGIN CERTIFICATE-----
MIIB0DCCATkCAQEwDQYJKoZIhvcNAQEFBQAwLzELMAkGA1UEBhMCRVUxEDAOBgNV
BAoTB0VNSVRlc3QxDjAMBgNVBAMTBVYxIENBMCAXDTExMTIyMTE4MjUwMloYDzIx
MTIwNjE0MTgyNTAyWjAwMQswCQYDVQQGEwJFVTEQMA4GA1UEChMHRU1JVGVzdDEP
MA0GA1UEAxMGVXNlclYxMIGfMA0GCSqGSIb3DQEBAQUAA4GNADCBiQKBgQC+yY4h
hLk+QoBRF9x2Civ6BSPQnpJraGxrkqqmLelfxOlRAG4SG75rsqhcwOZMQc5crcoR
CGYOlMMr4PrU5DTEqunZNqMnp1hF8D9+n6F7iGn5EumxEEwpPODcZe+6IGBOS826
pLV1uC2hvFrlmpZDuL2/7f/SnknRn7nKxohdIwIDAQABMA0GCSqGSIb3DQEBBQUA
A4GBAHtCbaeUnhYC/k3dk4f2cDcYqlMDQQ8qdXqEmd4IHTQc4PvprWC9ea3zRIqp
tnwGuH8HhprdGEINdeEx/5gWwH4cVlM6+RfqEe7bF5NrrwWcblJCvb+x6nfj0NyM
KGzUGv+hWsuzR31Ihl2iPxHfriaBc5PX51F9NBsQLJRJileu
-----END CERTIFICATE-----
