Certificate:
    Data:
        Version: 1 (0x0)
        Serial Number: 0 (0x0)
        Signature Algorithm: sha1WithRSAEncryption
        Issuer: C=EU, O=EMITest, CN=V1 CA
        Validity
            Not Before: Dec 21 18:24:01 2011 GMT
            Not After : Jun 14 18:24:01 2112 GMT
        Subject: C=EU, O=EMITest, CN=V1 CA
        Subject Public Key Info:
            Public Key Algorithm: rsaEncryption
                Public-Key: (1024 bit)
                Modulus:
                    00:bd:57:7e:36:f2:aa:38:b3:19:5e:c7:ee:29:63:
                    1a:3f:db:a1:ec:94:96:8c:6e:0b:98:43:bc:c8:cc:
                    44:a2:47:69:2d:a9:a8:9b:f1:68:aa:61:5e:15:73:
                    71:2e:4e:6a:13:dc:b6:3d:3b:65:4c:06:4c:01:a7:
                    35:62:3e:8f:b6:57:d3:9b:dc:0d:b4:49:a1:95:c9:
                    e4:3b:05:46:ef:53:13:96:54:09:a2:aa:c6:92:0a:
                    13:da:eb:15:db:e0:34:02:75:46:29:e8:b5:1e:2f:
                    e8:b0:0e:29:b1:cb:2e:f6:2f:ff:12:64:ac:74:bb:
                    d3:a7:bc:1a:59:d1:93:74:03
                Exponent: 65537 (0x10001)
    Signature Algorithm: sha1WithRSAEncryption
        69:b2:c6:c0:f5:93:af:90:dd:87:e2:15:aa:40:e3:26:10:7e:
        79:86:c6:1b:d8:74:56:70:f1:cc:24:3c:07:8a:c3:88:64:36:
        ca:34:0c:93:47:92:14:80:33:6a:f1:00:40:f9:b8:a6:a6:9e:
        02:61:83:ce:51:bc:3c:72:c4:6b:8c:70:0f:73:4a:90:27:1d:
        80:2e:f9:4d:f5:b1:4d:4a:d3:87:fe:ea:f8:9f:09:c8:1d:be:
        13:1d:17:f5:ee:f4:6d:8f:52:e4:70:8f:26:9d:18:a2:b8:c5:
        d2:7c:9a:55:87:84:90:5b:bd:9f:5f:8d:82:24:9d:dd:07:fd:
        38:47
-----BEGIN CERTIFICATE-----
MIIBzzCCATgCAQAwDQYJKoZIhvcNAQEFBQAwLzELMAkGA1UEBhMCRVUxEDAOBgNV
BAoTB0VNSVRlc3QxDjAMBgNVBAMTBVYxIENBMCAXDTExMTIyMTE4MjQwMVoYDzIx
MTIwNjE0MTgyNDAxWjAvMQswCQYDVQQGEwJFVTEQMA4GA1UEChMHRU1JVGVzdDEO
MAwGA1UEAxMFVjEgQ0EwgZ8wDQYJKoZIhvcNAQEBBQADgY0AMIGJAoGBAL1Xfjby
qjizGV7H7iljGj/boeyUloxuC5hDvMjMRKJHaS2pqJvxaKphXhVzcS5OahPctj07
ZUwGTAGnNWI+j7ZX05vcDbRJoZXJ5DsFRu9TE5ZUCaKqxpIKE9rrFdvgNAJ1Rino
tR4v6LAOKbHLLvYv/xJkrHS706e8GlnRk3QDAgMBAAEwDQYJKoZIhvcNAQEFBQAD
gYEAabLGwPWTr5Ddh+IVqkDjJhB+eYbGG9h0VnDxzCQ8B4rDiGQ2yjQMk0eSFIAz
avEAQPm4pqaeAmGDzlG8PHLEa4xwD3NKkCcdgC75TfWxTUrTh/7q+J8JyB2+Ex0X
9e70bY9S5HCPJp0YorjF0nyaVYeEkFu9n1+NgiSd3Qf9OEc=
-----END CERTIFICATE-----
