Certificate:
    Data:
        Version: 3 (0x2)
        Serial Number: 1 (0x1)
        Signature Algorithm: sha1WithRSAEncryption
        Issuer: C=EU, O=EMITest, CN=The root CA1
        Validity
            Not Before: Nov  5 13:00:28 2011 GMT
            Not After : Apr 29 13:00:28 2112 GMT
        Subject: C=EU, O=EMITest, CN=User1
        Subject Public Key Info:
            Public Key Algorithm: rsaEncryption
                Public-Key: (1024 bit)
                Modulus:
                    00:c7:60:0c:5a:ee:3b:5c:2f:a7:4d:a8:07:1d:d0:
                    62:c7:44:3a:64:bd:9e:1c:ce:e2:51:dd:80:d3:47:
                    72:aa:53:d8:7d:be:9e:4a:81:58:d0:06:b7:4a:73:
                    69:34:28:19:43:5a:d4:16:ec:82:76:0f:fa:4f:6a:
                    a1:a7:ca:9a:ed:df:11:a3:75:08:b5:7c:a5:e6:2a:
                    1e:4c:a2:2c:5c:71:76:fd:42:59:52:bb:cb:28:a7:
                    2d:2c:75:1e:8d:32:9e:8b:90:72:9b:0f:41:4c:b2:
                    81:7c:cc:c9:ea:f7:5c:81:0a:d4:d9:3c:84:5c:35:
                    78:da:e4:50:d6:e5:8d:fc:7d
                Exponent: 65537 (0x10001)
        X509v3 extensions:
            X509v3 Basic Constraints: 
                CA:FALSE
            Netscape Cert Type: 
                SSL Client, SSL Server, S/MIME, Object Signing
            X509v3 Key Usage: 
                Digital Signature, Non Repudiation, Key Encipherment, Data Encipherment
            Netscape Comment: 
                Certificate generated by the EMITest CA1
            X509v3 Subject Key Identifier: 
                D6:19:1E:F1:57:1B:68:93:8D:69:DB:AD:11:39:28:BF:E8:99:66:96
            X509v3 Authority Key Identifier: 
                keyid:50:FD:B6:76:CA:B5:9C:09:C3:91:20:0A:FE:54:7A:11:67:59:B8:0C

    Signature Algorithm: sha1WithRSAEncryption
        86:b2:56:6c:0c:dd:ac:2e:cc:39:f4:f9:6e:6a:b4:53:6f:1f:
        b4:3b:aa:0b:8f:63:1e:f9:dd:16:47:85:d4:2c:b2:c0:ad:b4:
        35:0e:f8:6a:a1:d4:fa:36:5a:7f:3e:96:f0:4d:1f:33:e4:97:
        f2:e0:18:da:dc:35:ed:23:6a:e0:d7:e0:99:40:a0:08:a7:91:
        7c:0d:ff:21:97:ed:48:96:84:e4:fe:b2:ce:97:8f:b4:53:2f:
        a3:39:54:54:e4:dd:a5:ef:fb:20:79:16:2b:ec:4b:6b:5c:e7:
        b3:c7:81:80:9c:03:b6:92:c9:b1:e0:96:f1:31:32:ba:e4:7b:
        a9:ce
-----BEGIN CERTIFICATE-----
MIIChTCCAe6gAwIBAgIBATANBgkqhkiG9w0BAQUFADA2MQswCQYDVQQGEwJFVTEQ
MA4GA1UEChMHRU1JVGVzdDEVMBMGA1UEAxMMVGhlIHJvb3QgQ0ExMCAXDTExMTEw
NTEzMDAyOFoYDzIxMTIwNDI5MTMwMDI4WjAvMQswCQYDVQQGEwJFVTEQMA4GA1UE
ChMHRU1JVGVzdDEOMAwGA1UEAxMFVXNlcjEwgZ8wDQYJKoZIhvcNAQEBBQADgY0A
MIGJAoGBAMdgDFruO1wvp02oBx3QYsdEOmS9nhzO4lHdgNNHcqpT2H2+nkqBWNAG
t0pzaTQoGUNa1BbsgnYP+k9qoafKmu3fEaN1CLV8peYqHkyiLFxxdv1CWVK7yyin
LSx1Ho0ynouQcpsPQUyygXzMyer3XIEK1Nk8hFw1eNrkUNbljfx9AgMBAAGjgacw
gaQwCQYDVR0TBAIwADARBglghkgBhvhCAQEEBAMCBPAwCwYDVR0PBAQDAgTwMDcG
CWCGSAGG+EIBDQQqFihDZXJ0aWZpY2F0ZSBnZW5lcmF0ZWQgYnkgdGhlIEVNSVRl
c3QgQ0ExMB0GA1UdDgQWBBTWGR7xVxtok41p260ROSi/6JlmljAfBgNVHSMEGDAW
gBRQ/bZ2yrWcCcORIAr+VHoRZ1m4DDANBgkqhkiG9w0BAQUFAAOBgQCGslZsDN2s
Lsw59PluarRTbx+0O6oLj2Me+d0WR4XULLLArbQ1DvhqodT6Nlp/PpbwTR8z5Jfy
4Bja3DXtI2rg1+CZQKAIp5F8Df8hl+1IloTk/rLOl4+0Uy+jOVRU5N2l7/sgeRYr
7EtrXOezx4GAnAO2ksmx4JbxMTK65Hupzg==
-----END CERTIFICATE-----
