Certificate:
    Data:
        Version: 3 (0x2)
        Serial Number: 378 (0x17a)
        Signature Algorithm: md5WithRSAEncryption
        Issuer: C=UG, L=Tropic, O=Utopia, OU=Relaxation, CN=the big CA
        Validity
            Not Before: Dec 16 17:38:04 2010 GMT
            Not After : May  3 17:38:04 2038 GMT
        Subject: C=UG, L=Tropic, O=Utopia, OU=Relaxation, CN=big client revoked
        Subject Public Key Info:
            Public Key Algorithm: rsaEncryption
            RSA Public Key: (1024 bit)
                Modulus (1024 bit):
                    00:b8:04:29:01:1b:61:d4:99:bf:b5:d2:bf:86:74:
                    68:5f:13:43:3f:5a:55:56:46:50:db:4d:fd:c9:c9:
                    71:0c:ac:05:d1:a3:29:37:93:0f:a3:5e:27:a8:ed:
                    b9:50:e2:73:8e:54:b7:9f:1f:e2:48:67:db:90:a6:
                    47:a3:9f:3d:38:5a:75:3f:fb:ca:f5:d9:a5:8c:0d:
                    cf:11:ca:00:ac:76:9a:b5:39:3c:29:fe:bf:df:aa:
                    93:32:d9:3d:00:77:24:4a:57:e3:83:92:ba:6c:d6:
                    dc:12:6d:6e:77:21:da:60:fc:28:c2:8b:ff:29:8b:
                    41:e1:60:27:49:0a:ce:44:a1
                Exponent: 65537 (0x10001)
        X509v3 extensions:
            Netscape Cert Type: 
                SSL Client, S/MIME
            Netscape Comment: 
                OpenSSL Generated Client Certificate
    Signature Algorithm: md5WithRSAEncryption
        83:40:c1:ec:46:66:46:d0:3e:90:44:f0:a8:b1:33:17:4b:c5:
        c1:b8:9e:01:da:a4:da:1d:37:57:86:1f:c1:56:a3:98:ca:1c:
        a5:da:a5:a7:04:a0:3a:aa:c8:ba:24:50:9e:db:19:3d:ed:c5:
        4c:f5:22:49:93:56:d0:6d:d0:2d:6b:1e:a1:91:f8:bc:72:09:
        aa:d8:87:57:80:53:06:59:cd:28:11:28:0f:0a:9b:dd:5a:98:
        bd:88:f4:eb:af:c9:0d:47:f0:5d:94:ed:85:c4:af:59:f9:c7:
        f7:ed:af:9d:f0:81:ea:57:e8:d1:c7:b3:a0:39:c9:36:bb:07:
        1c:dd:5f:76:a0:0d:84:10:d6:f1:43:5a:83:7a:d5:e4:05:92:
        f1:7d:a7:99:9b:c9:d8:d8:63:7b:92:0b:ef:68:02:7b:12:fb:
        51:91:6b:5f:86:46:1e:88:3b:f3:a1:fb:8f:5b:f4:df:5b:8b:
        dd:1d:25:8e:3e:fd:1d:d4:bf:e8:20:02:3f:5a:d6:18:f0:59:
        00:d0:06:6c:98:c1:db:1d:39:d5:72:2f:4b:68:d1:14:ab:d9:
        2e:1c:16:c2:cf:a0:3a:df:8b:99:a4:40:f4:b5:b1:68:b0:43:
        0d:d0:66:c7:67:bd:23:1b:e2:63:5b:8d:ea:0b:87:72:97:1a:
        58:53:8a:bc:75:cc:cd:75:e7:87:ee:a7:86:50:8b:a2:4b:c8:
        df:46:bf:14:93:cd:8e:87:b9:f1:90:c1:d4:12:78:7e:e1:55:
        f0:42:94:a2:24:ae:7a:02:74:2a:5c:51:ab:25:34:d2:21:78:
        50:63:a5:80:7c:78:ba:97:08:8c:c6:f8:9d:3d:14:8e:6a:cf:
        22:14:32:9a:3d:41:cc:58:f7:ab:e0:28:34:70:17:34:82:e1:
        37:90:4d:ee:23:31:cf:0f:49:05:19:03:5b:6d:28:95:aa:0a:
        37:61:c0:5f:46:a7:03:c9:fc:fb:b9:16:0f:cf:e0:94:1c:4a:
        3b:10:dc:88:f9:56:72:83:a1:ce:9d:7c:33:c1:21:07:c4:d7:
        fa:51:b9:50:04:41:7e:dc:f7:fc:ee:2c:4f:b1:6e:86:a0:c4:
        1b:2e:2c:ca:bd:3e:62:65:2c:d3:10:ef:b2:bc:ef:65:19:52:
        59:68:e9:89:85:5d:a8:4b:ab:6c:3a:9a:79:0c:d9:7c:1b:ac:
        ca:0b:2b:45:1e:63:a9:41:0c:df:5a:82:ab:45:2b:2d:6c:a8:
        6f:5d:92:43:64:f4:ff:85:d1:93:75:65:7e:ff:f1:11:1f:de:
        20:f4:59:21:71:37:e2:58:37:d8:5a:af:03:f8:ea:63:43:0d:
        70:35:5b:61:6a:4a:65:c4:75:d9:3f:b0:a6:6f:d0:35:af:bb:
        73:aa:47:ba:fd:84:9f:1a:6b:b0:a4:21:9e:19:8e:c0:f8:63:
        4b:ca:fb:93:99:4e:b5:c7:27:31:51:10:7c:83:7a:d6:c2:8a:
        9c:e8:50:53:d2:82:07:2b:07:b6:42:d7:f1:f3:ee:60:d2:42:
        31:aa:a9:ac:96:ec:25:ae:42:2b:c2:a2:c0:9c:ae:d2:7d:21:
        e6:7b:a3:30:89:c4:a8:02:76:69:ad:9c:7e:dc:36:8a:d9:32:
        de:dc:f7:79:e7:c6:7e:7c:8f:0c:94:1a:e1:69:7c:8e:22:a0:
        83:58:3e:7d:04:0b:fc:7e:cd:70:72:1a:fe:d1:7a:1e:a2:95:
        cc:2a:78:78:f5:e3:6d:f6:d7:77:e4:fe:1a:e6:af:8d:a9:c0:
        a3:db:d3:8b:e1:1c:c9:a9:0c:ba:72:f9:42:b6:e2:e1:f9:3e:
        e9:2d:af:57:d7:67:34:0b:e0:27:8c:22:a2:60:9e:68:05:06:
        74:b2:76:a6:34:93:7f:8c:87:f3:58:66:02:62:54:0d:a1:5b:
        46:6f:17:32:54:c6:be:5c:f6:c2:37:57:9a:fa:91:16:f9:2f:
        84:13:e5:c4:a8:70:50:17:7d:a0:6d:a0:56:db:ed:02:3c:77:
        04:32:63:b2:3d:3a:56:83:78:83:9c:c6:3e:17:58:63:8a:1b:
        ba:65:33:20:44:82:0e:c6:92:40:eb:7d:04:0f:86:78:b9:72:
        d9:53:68:5f:ca:9e:82:1a:a9:9e:d6:5d:b3:16:dc:fe:25:63:
        12:50:8d:01:d9:19:90:c0:67:9f:a7:07:3a:fa:8b:0e:c7:6d:
        a8:fc:2f:91:9a:ef:97:5a:9f:f1:64:59:d8:8c:1e:66:e2:da:
        93:f0:2f:9b:0d:d3:70:58:3d:df:bc:69:fb:b7:2f:7c:1c:71:
        8a:57:2c:f6:68:9f:55:df:49:08:40:ef:fe:71:e6:f5:ed:4c:
        ad:4e:ca:7c:b6:54:e2:cc:94:a3:8e:a2:04:17:54:68:b4:56:
        61:39:4d:c7:20:51:1e:03:d8:8b:70:d8:ae:43:39:c5:db:bd:
        9a:78:d9:fa:4b:9e:7d:8a:50:98:f5:13:20:58:62:c2:af:43:
        eb:9f:d3:26:d4:c0:16:69:fd:90:b1:23:93:ee:1a:f8:66:53:
        22:3c:8d:e5:50:4f:0a:0d:53:cb:55:50:f7:e7:da:ed:11:7e:
        6b:1a:91:1e:de:ef:bc:c8:a2:1a:4b:6c:79:08:75:dd:95:25:
        d7:90:29:99:73:e9:2e:92:bc:c9:ea:6c:1c:1e:97:b1:a7:63:
        c4:02:49:9a:60:10:1b:8c:f1:31:11:95:06:fc:23:cd
-----BEGIN CERTIFICATE-----
MIIF/DCCAeSgAwIBAgICAXowDQYJKoZIhvcNAQEEBQAwWTELMAkGA1UEBhMCVUcx
DzANBgNVBAcTBlRyb3BpYzEPMA0GA1UEChMGVXRvcGlhMRMwEQYDVQQLEwpSZWxh
eGF0aW9uMRMwEQYDVQQDEwp0aGUgYmlnIENBMB4XDTEwMTIxNjE3MzgwNFoXDTM4
MDUwMzE3MzgwNFowYTELMAkGA1UEBhMCVUcxDzANBgNVBAcTBlRyb3BpYzEPMA0G
A1UEChMGVXRvcGlhMRMwEQYDVQQLEwpSZWxheGF0aW9uMRswGQYDVQQDExJiaWcg
Y2xpZW50IHJldm9rZWQwgZ8wDQYJKoZIhvcNAQEBBQADgY0AMIGJAoGBALgEKQEb
YdSZv7XSv4Z0aF8TQz9aVVZGUNtN/cnJcQysBdGjKTeTD6NeJ6jtuVDic45Ut58f
4khn25CmR6OfPThadT/7yvXZpYwNzxHKAKx2mrU5PCn+v9+qkzLZPQB3JEpX44OS
umzW3BJtbnch2mD8KMKL/ymLQeFgJ0kKzkShAgMBAAGjSjBIMBEGCWCGSAGG+EIB
AQQEAwIFoDAzBglghkgBhvhCAQ0EJhYkT3BlblNTTCBHZW5lcmF0ZWQgQ2xpZW50
IENlcnRpZmljYXRlMA0GCSqGSIb3DQEBBAUAA4IEAQCDQMHsRmZG0D6QRPCosTMX
S8XBuJ4B2qTaHTdXhh/BVqOYyhyl2qWnBKA6qsi6JFCe2xk97cVM9SJJk1bQbdAt
ax6hkfi8cgmq2IdXgFMGWc0oESgPCpvdWpi9iPTrr8kNR/BdlO2FxK9Z+cf37a+d
8IHqV+jRx7OgOck2uwcc3V92oA2EENbxQ1qDetXkBZLxfaeZm8nY2GN7kgvvaAJ7
EvtRkWtfhkYeiDvzofuPW/TfW4vdHSWOPv0d1L/oIAI/WtYY8FkA0AZsmMHbHTnV
ci9LaNEUq9kuHBbCz6A634uZpED0tbFosEMN0GbHZ70jG+JjW43qC4dylxpYU4q8
dczNdeeH7qeGUIuiS8jfRr8Uk82Oh7nxkMHUEnh+4VXwQpSiJK56AnQqXFGrJTTS
IXhQY6WAfHi6lwiMxvidPRSOas8iFDKaPUHMWPer4Cg0cBc0guE3kE3uIzHPD0kF
GQNbbSiVqgo3YcBfRqcDyfz7uRYPz+CUHEo7ENyI+VZyg6HOnXwzwSEHxNf6UblQ
BEF+3Pf87ixPsW6GoMQbLizKvT5iZSzTEO+yvO9lGVJZaOmJhV2oS6tsOpp5DNl8
G6zKCytFHmOpQQzfWoKrRSstbKhvXZJDZPT/hdGTdWV+//ERH94g9FkhcTfiWDfY
Wq8D+OpjQw1wNVthakplxHXZP7Cmb9A1r7tzqke6/YSfGmuwpCGeGY7A+GNLyvuT
mU61xycxURB8g3rWwoqc6FBT0oIHKwe2Qtfx8+5g0kIxqqmsluwlrkIrwqLAnK7S
fSHme6MwicSoAnZprZx+3DaK2TLe3Pd558Z+fI8MlBrhaXyOIqCDWD59BAv8fs1w
chr+0XoeopXMKnh49eNt9td35P4a5q+NqcCj29OL4RzJqQy6cvlCtuLh+T7pLa9X
12c0C+AnjCKiYJ5oBQZ0snamNJN/jIfzWGYCYlQNoVtGbxcyVMa+XPbCN1ea+pEW
+S+EE+XEqHBQF32gbaBW2+0CPHcEMmOyPTpWg3iDnMY+F1hjihu6ZTMgRIIOxpJA
630ED4Z4uXLZU2hfyp6CGqme1l2zFtz+JWMSUI0B2RmQwGefpwc6+osOx22o/C+R
mu+XWp/xZFnYjB5m4tqT8C+bDdNwWD3fvGn7ty98HHGKVyz2aJ9V30kIQO/+ceb1
7UytTsp8tlTizJSjjqIEF1RotFZhOU3HIFEeA9iLcNiuQznF272aeNn6S559ilCY
9RMgWGLCr0Prn9Mm1MAWaf2QsSOT7hr4ZlMiPI3lUE8KDVPLVVD359rtEX5rGpEe
3u+8yKIaS2x5CHXdlSXXkCmZc+kukrzJ6mwcHpexp2PEAkmaYBAbjPExEZUG/CPN
-----END CERTIFICATE-----
