Certificate:
    Data:
        Version: 3 (0x2)
        Serial Number: 7 (0x7)
    Signature Algorithm: sha512WithRSAEncryption
        Issuer: C=EU, O=EMITest, CN=The root CA1
        Validity
            Not Before: Jan  1 01:01:00 2013 GMT
            Not After : Jan 30 01:01:00 2013 GMT
        Subject: C=EU, O=EMITest, CN=Expired User
        Subject Public Key Info:
            Public Key Algorithm: rsaEncryption
                Public-Key: (1024 bit)
                Modulus:
                    00:c1:f8:4b:8f:70:a2:fa:57:ca:84:27:68:31:f2:
                    90:0d:b1:c5:4a:8f:15:37:72:9f:b7:a5:6b:4f:5f:
                    a2:fa:8d:85:e2:04:bd:dd:f9:0b:87:c1:fc:58:40:
                    85:21:a9:c9:9d:e2:9c:4e:a6:a5:4f:85:34:c5:53:
                    b0:60:d9:0b:ba:f3:27:0e:fb:15:4b:7c:af:1d:45:
                    fd:71:d2:89:b3:c0:5a:f6:82:47:f5:82:59:3a:70:
                    7c:14:4e:d0:e3:dd:c9:38:1e:32:2c:1c:96:ac:a3:
                    c2:e8:ee:9e:46:d8:0a:52:02:f2:75:23:3c:b2:82:
                    aa:7d:f5:c7:a1:1e:c4:56:b9
                Exponent: 65537 (0x10001)
        X509v3 extensions:
            X509v3 Basic Constraints: 
                CA:FALSE
            Netscape Cert Type: 
                SSL Client, SSL Server, S/MIME, Object Signing
            X509v3 Key Usage: 
                Digital Signature, Non Repudiation, Key Encipherment, Data Encipherment
            Netscape Comment: 
                Certificate generated by the EMITest CA1
            X509v3 Subject Key Identifier: 
                2C:DA:AD:74:1F:B8:E3:C6:D5:CE:6A:DA:03:DE:5E:AF:55:AA:71:6E
            X509v3 Authority Key Identifier: 
                keyid:50:FD:B6:76:CA:B5:9C:09:C3:91:20:0A:FE:54:7A:11:67:59:B8:0C

    Signature Algorithm: sha512WithRSAEncryption
         4a:5f:b7:41:f9:ec:6b:4d:19:2e:83:bb:5a:55:49:3b:8f:fc:
         a6:83:9a:74:6f:0c:dd:6c:bf:50:db:cd:87:ad:3c:7d:c9:35:
         19:76:10:38:ce:73:f0:fc:28:3a:9c:6b:95:19:0f:a0:93:3f:
         c0:f1:87:9d:76:ba:33:80:56:a4:8c:af:5c:ac:b7:27:35:9f:
         00:a7:86:d8:b0:b6:13:6d:c5:04:44:44:ed:ee:12:ed:c6:d3:
         60:b9:04:0d:7d:1f:5b:f0:dd:6d:06:d2:5b:51:2f:77:84:86:
         bc:80:ea:eb:13:61:b2:ce:55:8a:7e:15:11:7c:c3:8c:b9:f2:
         89:6a
-----BEGIN CERTIFICATE-----
MIICijCCAfOgAwIBAgIBBzANBgkqhkiG9w0BAQ0FADA2MQswCQYDVQQGEwJFVTEQ
MA4GA1UEChMHRU1JVGVzdDEVMBMGA1UEAxMMVGhlIHJvb3QgQ0ExMB4XDTEzMDEw
MTAxMDEwMFoXDTEzMDEzMDAxMDEwMFowNjELMAkGA1UEBhMCRVUxEDAOBgNVBAoT
B0VNSVRlc3QxFTATBgNVBAMTDEV4cGlyZWQgVXNlcjCBnzANBgkqhkiG9w0BAQEF
AAOBjQAwgYkCgYEAwfhLj3Ci+lfKhCdoMfKQDbHFSo8VN3Kft6VrT1+i+o2F4gS9
3fkLh8H8WECFIanJneKcTqalT4U0xVOwYNkLuvMnDvsVS3yvHUX9cdKJs8Ba9oJH
9YJZOnB8FE7Q493JOB4yLByWrKPC6O6eRtgKUgLydSM8soKqffXHoR7EVrkCAwEA
AaOBpzCBpDAJBgNVHRMEAjAAMBEGCWCGSAGG+EIBAQQEAwIE8DALBgNVHQ8EBAMC
BPAwNwYJYIZIAYb4QgENBCoWKENlcnRpZmljYXRlIGdlbmVyYXRlZCBieSB0aGUg
RU1JVGVzdCBDQTEwHQYDVR0OBBYEFCzarXQfuOPG1c5q2gPeXq9VqnFuMB8GA1Ud
IwQYMBaAFFD9tnbKtZwJw5EgCv5UehFnWbgMMA0GCSqGSIb3DQEBDQUAA4GBAEpf
t0H57GtNGS6Du1pVSTuP/KaDmnRvDN1sv1DbzYetPH3JNRl2EDjOc/D8KDqca5UZ
D6CTP8Dxh512ujOAVqSMr1ystyc1nwCnhtiwthNtxQRERO3uEu3G02C5BA19H1vw
3W0G0ltRL3eEhryA6usTYbLOVYp+FRF8w4y58olq
-----END CERTIFICATE-----
