Certificate:
    Data:
        Version: 3 (0x2)
        Serial Number: 410 (0x19a)
        Signature Algorithm: md5WithRSAEncryption
        Issuer: C=UG, L=Tropic, O=Utopia, OU=Relaxation, CN=the trusted CA
        Validity
            Not Before: Oct 20 17:38:58 2010 GMT
            Not After : Mar  7 17:38:58 2038 GMT
        Subject: C=UG, L=Tropic, O=Utopia, OU=Relaxation, CN=hahkala client05
        Subject Public Key Info:
            Public Key Algorithm: rsaEncryption
            RSA Public Key: (1024 bit)
                Modulus (1024 bit):
                    00:be:2b:27:7a:d8:4e:77:5a:5d:7b:cb:b6:00:24:
                    5d:c9:08:60:77:b2:b9:a6:d2:43:21:53:68:21:03:
                    34:a7:b1:57:ea:a6:08:c5:5f:0c:2b:06:a7:fe:11:
                    29:f9:e1:df:f2:7b:e4:0b:93:25:db:72:fc:09:77:
                    d6:a3:73:3f:e1:3f:d7:46:7e:2a:64:ab:99:9a:71:
                    d0:93:d4:33:3a:fe:d9:1f:d7:97:30:44:4e:ba:f7:
                    f5:3f:45:20:72:ad:60:17:d5:d4:2c:c4:65:70:8a:
                    e5:08:09:fc:f9:43:a0:2e:5d:e9:3f:85:5b:c1:03:
                    df:6d:f0:fc:a8:b6:dc:8f:e5
                Exponent: 65537 (0x10001)
        X509v3 extensions:
            Netscape Cert Type: 
                SSL Client, S/MIME
            Netscape Comment: 
                OpenSSL Generated Client Certificate
    Signature Algorithm: md5WithRSAEncryption
        1a:76:8f:b9:8b:7d:7d:bb:0b:b7:bb:cf:52:8d:af:50:22:e4:
        03:fa:6c:10:64:26:98:53:14:58:ff:f0:2c:98:b0:59:cf:2d:
        86:c7:56:9f:2a:f4:52:15:31:19:96:d3:80:0a:f8:89:13:a3:
        d3:44:54:03:8b:ce:9c:cd:fa:24:be:d4:86:1b:c1:8f:d3:e0:
        0e:57:94:b2:dd:2a:6c:e9:22:d6:84:08:8d:d8:de:de:ca:14:
        34:c9:fc:f7:3b:76:e3:9e:3d:33:0a:13:f9:a8:6d:fb:54:11:
        35:d2:89:fc:89:d1:c3:74:b5:cf:f0:7a:58:0b:a5:f5:15:58:
        b0:3c
-----BEGIN CERTIFICATE-----
MIICfTCCAeagAwIBAgICAZowDQYJKoZIhvcNAQEEBQAwXTELMAkGA1UEBhMCVUcx
DzANBgNVBAcTBlRyb3BpYzEPMA0GA1UEChMGVXRvcGlhMRMwEQYDVQQLEwpSZWxh
eGF0aW9uMRcwFQYDVQQDEw50aGUgdHJ1c3RlZCBDQTAeFw0xMDEwMjAxNzM4NTha
Fw0zODAzMDcxNzM4NThaMF8xCzAJBgNVBAYTAlVHMQ8wDQYDVQQHEwZUcm9waWMx
DzANBgNVBAoTBlV0b3BpYTETMBEGA1UECxMKUmVsYXhhdGlvbjEZMBcGA1UEAxMQ
aGFoa2FsYSBjbGllbnQwNTCBnzANBgkqhkiG9w0BAQEFAAOBjQAwgYkCgYEAvisn
ethOd1pde8u2ACRdyQhgd7K5ptJDIVNoIQM0p7FX6qYIxV8MKwan/hEp+eHf8nvk
C5Ml23L8CXfWo3M/4T/XRn4qZKuZmnHQk9QzOv7ZH9eXMEROuvf1P0Ugcq1gF9XU
LMRlcIrlCAn8+UOgLl3pP4VbwQPfbfD8qLbcj+UCAwEAAaNKMEgwEQYJYIZIAYb4
QgEBBAQDAgWgMDMGCWCGSAGG+EIBDQQmFiRPcGVuU1NMIEdlbmVyYXRlZCBDbGll
bnQgQ2VydGlmaWNhdGUwDQYJKoZIhvcNAQEEBQADgYEAGnaPuYt9fbsLt7vPUo2v
UCLkA/psEGQmmFMUWP/wLJiwWc8thsdWnyr0UhUxGZbTgAr4iROj00RUA4vOnM36
JL7UhhvBj9PgDleUst0qbOki1oQIjdje3soUNMn89zt24549MwoT+aht+1QRNdKJ
/InRw3S1z/B6WAul9RVYsDw=
-----END CERTIFICATE-----
