Certificate:
    Data:
        Version: 3 (0x2)
        Serial Number: 376 (0x178)
        Signature Algorithm: md5WithRSAEncryption
        Issuer: C=UG, L=Tropic, O=Utopia, OU=Relaxation, CN=the trusted CA
        Validity
            Not Before: Jan  1 00:00:00 2035 GMT
            Not After : May  3 17:37:38 2038 GMT
        Subject: C=UG, L=Tropic, O=Utopia, OU=Relaxation, CN=trusted client future
        Subject Public Key Info:
            Public Key Algorithm: rsaEncryption
            RSA Public Key: (1024 bit)
                Modulus (1024 bit):
                    00:ad:e5:1a:0d:73:65:a8:55:09:47:7e:77:7d:31:
                    b1:82:3e:bf:09:56:44:7d:84:fe:9a:e9:20:ef:4a:
                    bc:98:0f:8f:29:55:1e:29:35:70:4f:77:15:ba:b2:
                    cb:16:0f:ba:f7:4c:25:3d:cf:b0:2f:5c:ac:3f:26:
                    56:db:2c:29:4e:2b:d8:63:a3:90:bf:0b:de:e9:93:
                    b4:18:1d:3d:a4:68:73:97:75:47:e5:88:c4:cb:ac:
                    d8:bd:75:bf:b2:96:ae:03:95:f8:7c:0c:5c:11:0e:
                    e9:4d:47:74:d2:ae:60:1f:57:aa:ed:10:3d:35:f0:
                    68:58:44:91:fc:95:5b:61:11
                Exponent: 65537 (0x10001)
        X509v3 extensions:
            Netscape Cert Type: 
                SSL Client, S/MIME
            Netscape Comment: 
                OpenSSL Generated Client Certificate
    Signature Algorithm: md5WithRSAEncryption
        58:38:b8:ca:e2:62:67:5d:7c:ba:90:c7:1d:9f:83:07:ee:6a:
        80:b9:a4:33:2a:67:94:2b:15:04:9b:f4:ae:73:3b:7b:3e:36:
        97:bf:4a:b9:7d:d6:50:6d:28:a8:6c:b9:9b:76:1f:2a:41:ec:
        a7:ed:90:cc:3b:b0:f9:94:d1:ee:a2:b1:83:68:3d:67:19:24:
        8f:ed:a1:ce:e1:a2:24:08:7f:fc:39:41:25:6e:68:0e:9c:5e:
        8f:32:31:5d:6b:8a:99:63:9b:9d:d2:95:ff:81:7e:53:34:f9:
        9c:a7:62:95:1b:1e:2d:25:be:b8:24:d7:3c:d8:43:99:b0:63:
        fd:38
-----BEGIN CERTIFICATE-----
MIICgjCCAeugAwIBAgICAXgwDQYJKoZIhvcNAQEEBQAwXTELMAkGA1UEBhMCVUcx
DzANBgNVBAcTBlRyb3BpYzEPMA0GA1UEChMGVXRvcGlhMRMwEQYDVQQLEwpSZWxh
eGF0aW9uMRcwFQYDVQQDEw50aGUgdHJ1c3RlZCBDQTAeFw0zNTAxMDEwMDAwMDBa
Fw0zODA1MDMxNzM3MzhaMGQxCzAJBgNVBAYTAlVHMQ8wDQYDVQQHEwZUcm9waWMx
DzANBgNVBAoTBlV0b3BpYTETMBEGA1UECxMKUmVsYXhhdGlvbjEeMBwGA1UEAxMV
dHJ1c3RlZCBjbGllbnQgZnV0dXJlMIGfMA0GCSqGSIb3DQEBAQUAA4GNADCBiQKB
gQCt5RoNc2WoVQlHfnd9MbGCPr8JVkR9hP6a6SDvSryYD48pVR4pNXBPdxW6sssW
D7r3TCU9z7AvXKw/JlbbLClOK9hjo5C/C97pk7QYHT2kaHOXdUfliMTLrNi9db+y
lq4Dlfh8DFwRDulNR3TSrmAfV6rtED018GhYRJH8lVthEQIDAQABo0owSDARBglg
hkgBhvhCAQEEBAMCBaAwMwYJYIZIAYb4QgENBCYWJE9wZW5TU0wgR2VuZXJhdGVk
IENsaWVudCBDZXJ0aWZpY2F0ZTANBgkqhkiG9w0BAQQFAAOBgQBYOLjK4mJnXXy6
kMcdn4MH7mqAuaQzKmeUKxUEm/Suczt7PjaXv0q5fdZQbSiobLmbdh8qQeyn7ZDM
O7D5lNHuorGDaD1nGSSP7aHO4aIkCH/8OUElbmgOnF6PMjFda4qZY5ud0pX/gX5T
NPmcp2KVGx4tJb64JNc82EOZsGP9OA==
-----END CERTIFICATE-----
