Certificate:
    Data:
        Version: 3 (0x2)
        Serial Number: 409 (0x199)
        Signature Algorithm: md5WithRSAEncryption
        Issuer: C=UG, L=Tropic, O=Utopia, OU=Relaxation, CN=the trusted CA
        Validity
            Not Before: Oct 20 17:38:58 2010 GMT
            Not After : Mar  7 17:38:58 2038 GMT
        Subject: C=UG, L=Tropic, O=Utopia, OU=Relaxation, CN=hahkala client04
        Subject Public Key Info:
            Public Key Algorithm: rsaEncryption
            RSA Public Key: (1024 bit)
                Modulus (1024 bit):
                    00:d9:a4:72:fc:79:0f:26:23:3e:99:f7:d9:b6:f8:
                    06:e5:e5:f0:8c:47:df:83:34:24:64:45:97:e1:40:
                    2b:8d:a0:f9:a2:75:c5:43:5e:ee:b2:15:61:70:f3:
                    20:40:26:44:05:48:85:0d:a2:b8:69:61:e1:b2:d6:
                    69:b1:8c:a5:32:d4:b2:e2:2b:c0:d0:57:03:d4:ce:
                    12:85:1b:fb:c2:94:ba:69:0b:48:cc:ee:4e:88:db:
                    1e:29:41:c7:a5:b9:d9:12:ef:9b:c3:95:e6:5a:5f:
                    9b:8f:74:8b:3c:da:7a:d8:c6:17:01:36:9b:ba:ca:
                    34:84:93:7f:d7:7a:6c:05:e7
                Exponent: 65537 (0x10001)
        X509v3 extensions:
            Netscape Cert Type: 
                SSL Client, S/MIME
            Netscape Comment: 
                OpenSSL Generated Client Certificate
    Signature Algorithm: md5WithRSAEncryption
        5d:dd:c2:29:47:fa:4d:e2:6b:2b:4a:09:f9:a6:58:c0:6a:ac:
        71:27:0c:c5:4e:fe:91:4e:08:cb:11:fd:01:31:eb:1f:78:16:
        6d:52:11:dd:b2:44:72:64:59:0a:48:81:80:84:3e:59:6b:e7:
        01:91:6b:92:4e:20:c8:4e:da:fa:b4:62:df:c9:14:a5:23:41:
        70:16:59:49:9b:89:eb:f3:ca:0e:13:1c:84:71:e6:ea:f3:32:
        d8:d7:a8:86:8d:6d:b8:09:49:a1:85:6a:ad:23:2e:1d:90:a7:
        bd:af:ab:ac:76:de:e1:3d:49:14:bb:b7:21:cc:85:33:b5:3e:
        78:bf
-----BEGIN CERTIFICATE-----
MIICfTCCAeagAwIBAgICAZkwDQYJKoZIhvcNAQEEBQAwXTELMAkGA1UEBhMCVUcx
DzANBgNVBAcTBlRyb3BpYzEPMA0GA1UEChMGVXRvcGlhMRMwEQYDVQQLEwpSZWxh
eGF0aW9uMRcwFQYDVQQDEw50aGUgdHJ1c3RlZCBDQTAeFw0xMDEwMjAxNzM4NTha
Fw0zODAzMDcxNzM4NThaMF8xCzAJBgNVBAYTAlVHMQ8wDQYDVQQHEwZUcm9waWMx
DzANBgNVBAoTBlV0b3BpYTETMBEGA1UECxMKUmVsYXhhdGlvbjEZMBcGA1UEAxMQ
aGFoa2FsYSBjbGllbnQwNDCBnzANBgkqhkiG9w0BAQEFAAOBjQAwgYkCgYEA2aRy
/HkPJiM+mffZtvgG5eXwjEffgzQkZEWX4UArjaD5onXFQ17ushVhcPMgQCZEBUiF
DaK4aWHhstZpsYylMtSy4ivA0FcD1M4ShRv7wpS6aQtIzO5OiNseKUHHpbnZEu+b
w5XmWl+bj3SLPNp62MYXATabuso0hJN/13psBecCAwEAAaNKMEgwEQYJYIZIAYb4
QgEBBAQDAgWgMDMGCWCGSAGG+EIBDQQmFiRPcGVuU1NMIEdlbmVyYXRlZCBDbGll
bnQgQ2VydGlmaWNhdGUwDQYJKoZIhvcNAQEEBQADgYEAXd3CKUf6TeJrK0oJ+aZY
wGqscScMxU7+kU4IyxH9ATHrH3gWbVIR3bJEcmRZCkiBgIQ+WWvnAZFrkk4gyE7a
+rRi38kUpSNBcBZZSZuJ6/PKDhMchHHm6vMy2Neoho1tuAlJoYVqrSMuHZCnva+r
rHbe4T1JFLu3IcyFM7U+eL8=
-----END CERTIFICATE-----
