Certificate:
    Data:
        Version: 3 (0x2)
        Serial Number: 386 (0x182)
        Signature Algorithm: md5WithRSAEncryption
        Issuer: C=UG, L=Tropic, O=Utopia, OU=Relaxation, CN=the trusted CA
        Validity
            Not Before: Dec 16 17:37:51 2010 GMT
            Not After : May  3 17:37:51 2038 GMT
        Subject: C=UG, L=Tropic, O=Utopia, OU=Relaxation, CN=trusted server
        Subject Public Key Info:
            Public Key Algorithm: rsaEncryption
            RSA Public Key: (1024 bit)
                Modulus (1024 bit):
                    00:c9:a4:e0:2d:3f:bf:68:58:b9:e8:f0:3d:34:93:
                    aa:17:86:75:b8:5a:5e:34:4b:1e:b2:fd:4a:91:35:
                    52:6a:fa:e4:20:28:da:98:10:a1:d4:d2:0c:ec:c8:
                    b8:d4:b4:8a:d5:ae:21:66:12:55:26:85:cd:d7:58:
                    19:bf:3c:6f:a3:1a:e2:6d:fb:d6:8f:f6:7c:b9:16:
                    ff:76:72:6b:29:bf:fd:2c:0d:fb:b0:58:17:60:4a:
                    b3:d9:dd:c7:45:69:1c:d0:d9:aa:fd:77:84:25:03:
                    4a:2e:e6:98:47:f1:49:3a:c3:e0:00:62:84:d6:a4:
                    a8:ca:87:14:e9:00:a1:79:39
                Exponent: 65537 (0x10001)
        X509v3 extensions:
            Netscape Cert Type: 
                SSL Server
            Netscape Comment: 
                OpenSSL Generated Server Certificate
    Signature Algorithm: md5WithRSAEncryption
        7f:c5:7c:72:78:3b:5f:ea:bf:01:d5:7d:fb:58:da:f9:f0:0d:
        9d:35:82:06:e0:37:7c:d8:ca:a3:f1:66:ee:2f:7d:06:16:f4:
        2e:aa:a4:70:0e:b0:96:e1:20:57:8d:a9:d9:bc:64:43:ff:fb:
        52:55:b3:af:cf:59:c1:5f:8a:c5:18:ce:b4:4d:e2:1e:01:b2:
        d5:94:8e:62:a6:3a:a3:e0:1e:cf:fb:34:6d:ea:a6:c9:8b:74:
        a8:98:68:9f:34:f9:da:d9:d3:01:ee:fc:2c:02:3c:8b:28:9b:
        67:7b:02:f4:9e:a5:44:c0:9d:66:c9:07:9b:78:07:ad:aa:5c:
        a2:43
-----BEGIN CERTIFICATE-----
MIICezCCAeSgAwIBAgICAYIwDQYJKoZIhvcNAQEEBQAwXTELMAkGA1UEBhMCVUcx
DzANBgNVBAcTBlRyb3BpYzEPMA0GA1UEChMGVXRvcGlhMRMwEQYDVQQLEwpSZWxh
eGF0aW9uMRcwFQYDVQQDEw50aGUgdHJ1c3RlZCBDQTAeFw0xMDEyMTYxNzM3NTFa
Fw0zODA1MDMxNzM3NTFaMF0xCzAJBgNVBAYTAlVHMQ8wDQYDVQQHEwZUcm9waWMx
DzANBgNVBAoTBlV0b3BpYTETMBEGA1UECxMKUmVsYXhhdGlvbjEXMBUGA1UEAxMO
dHJ1c3RlZCBzZXJ2ZXIwgZ8wDQYJKoZIhvcNAQEBBQADgY0AMIGJAoGBAMmk4C0/
v2hYuejwPTSTqheGdbhaXjRLHrL9SpE1Umr65CAo2pgQodTSDOzIuNS0itWuIWYS
VSaFzddYGb88b6Ma4m371o/2fLkW/3Zyaym//SwN+7BYF2BKs9ndx0VpHNDZqv13
hCUDSi7mmEfxSTrD4ABihNakqMqHFOkAoXk5AgMBAAGjSjBIMBEGCWCGSAGG+EIB
AQQEAwIGQDAzBglghkgBhvhCAQ0EJhYkT3BlblNTTCBHZW5lcmF0ZWQgU2VydmVy
IENlcnRpZmljYXRlMA0GCSqGSIb3DQEBBAUAA4GBAH/FfHJ4O1/qvwHVfftY2vnw
DZ01ggbgN3zYyqPxZu4vfQYW9C6qpHAOsJbhIFeNqdm8ZEP/+1JVs6/PWcFfisUY
zrRN4h4BstWUjmKmOqPgHs/7NG3qpsmLdKiYaJ80+drZ0wHu/CwCPIsom2d7AvSe
pUTAnWbJB5t4B62qXKJD
-----END CERTIFICATE-----
