Certificate:
    Data:
        Version: 3 (0x2)
        Serial Number: 375 (0x177)
        Signature Algorithm: md5WithRSAEncryption
        Issuer: C=UG, L=Tropic, O=Utopia, OU=Relaxation, CN=the trusted CA
        Validity
            Not Before: Dec 16 17:37:37 2010 GMT
            Not After : May  3 17:37:37 2038 GMT
        Subject: C=UG, L=Tropic, O=Utopia, OU=Chilling, CN=trusted client with bad DN
        Subject Public Key Info:
            Public Key Algorithm: rsaEncryption
            RSA Public Key: (1024 bit)
                Modulus (1024 bit):
                    00:b6:e3:0a:c7:50:c5:97:ce:00:f8:c7:88:95:7e:
                    b4:59:70:cc:a6:42:08:d2:77:a8:25:6a:49:b1:09:
                    6d:a9:cc:55:54:a8:10:83:f7:70:99:32:6c:d9:3b:
                    00:12:eb:3e:52:9b:a4:25:33:8c:f2:e1:25:d0:67:
                    e4:70:a0:7f:19:f2:93:b4:9b:be:61:d0:1c:31:b6:
                    c3:32:08:51:81:87:e9:91:e3:fe:86:66:e7:81:72:
                    30:86:5f:22:ae:32:1c:04:9f:a4:25:92:d7:73:83:
                    34:98:fc:82:a5:d9:a5:42:9b:b1:2c:4b:10:84:d0:
                    a1:52:09:3c:cc:ef:78:a2:f5
                Exponent: 65537 (0x10001)
        X509v3 extensions:
            Netscape Cert Type: 
                SSL Client, S/MIME
            Netscape Comment: 
                OpenSSL Generated Client Certificate
    Signature Algorithm: md5WithRSAEncryption
        6c:df:71:fc:69:6d:81:6e:65:ad:d3:38:44:f5:03:a0:da:96:
        1c:54:dc:47:0c:79:07:82:07:da:f5:04:89:83:5e:31:1f:c6:
        15:7f:b9:46:68:bc:30:d0:17:aa:dc:b6:6d:a7:09:56:d3:1c:
        7f:d1:cf:23:1c:e7:b4:df:1a:87:87:f1:78:00:58:82:20:ae:
        1e:db:c3:95:a9:e3:36:cd:1f:c1:b4:75:56:ed:5b:3f:30:3f:
        1a:b9:83:fa:14:a5:22:3c:33:0a:5f:ef:bf:27:62:16:62:6c:
        85:9d:a6:7f:50:b9:3d:64:ea:42:09:65:d6:3e:8b:cd:52:28:
        fb:87
-----BEGIN CERTIFICATE-----
MIIChTCCAe6gAwIBAgICAXcwDQYJKoZIhvcNAQEEBQAwXTELMAkGA1UEBhMCVUcx
DzANBgNVBAcTBlRyb3BpYzEPMA0GA1UEChMGVXRvcGlhMRMwEQYDVQQLEwpSZWxh
eGF0aW9uMRcwFQYDVQQDEw50aGUgdHJ1c3RlZCBDQTAeFw0xMDEyMTYxNzM3Mzda
Fw0zODA1MDMxNzM3MzdaMGcxCzAJBgNVBAYTAlVHMQ8wDQYDVQQHEwZUcm9waWMx
DzANBgNVBAoTBlV0b3BpYTERMA8GA1UECxMIQ2hpbGxpbmcxIzAhBgNVBAMTGnRy
dXN0ZWQgY2xpZW50IHdpdGggYmFkIEROMIGfMA0GCSqGSIb3DQEBAQUAA4GNADCB
iQKBgQC24wrHUMWXzgD4x4iVfrRZcMymQgjSd6glakmxCW2pzFVUqBCD93CZMmzZ
OwAS6z5Sm6QlM4zy4SXQZ+RwoH8Z8pO0m75h0BwxtsMyCFGBh+mR4/6GZueBcjCG
XyKuMhwEn6QlktdzgzSY/IKl2aVCm7EsSxCE0KFSCTzM73ii9QIDAQABo0owSDAR
BglghkgBhvhCAQEEBAMCBaAwMwYJYIZIAYb4QgENBCYWJE9wZW5TU0wgR2VuZXJh
dGVkIENsaWVudCBDZXJ0aWZpY2F0ZTANBgkqhkiG9w0BAQQFAAOBgQBs33H8aW2B
bmWt0zhE9QOg2pYcVNxHDHkHggfa9QSJg14xH8YVf7lGaLww0Beq3LZtpwlW0xx/
0c8jHOe03xqHh/F4AFiCIK4e28OVqeM2zR/BtHVW7Vs/MD8auYP6FKUiPDMKX++/
J2IWYmyFnaZ/ULk9ZOpCCWXWPovNUij7hw==
-----END CERTIFICATE-----
