Certificate:
    Data:
        Version: 3 (0x2)
        Serial Number: 0 (0x0)
        Signature Algorithm: sha1WithRSAEncryption
        Issuer: C=EU, O=EMITest, CN=The root CA1
        Validity
            Not Before: Nov  5 12:59:14 2011 GMT
            Not After : Apr 29 12:59:14 2112 GMT
        Subject: C=EU, O=EMITest, CN=The root CA1
        Subject Public Key Info:
            Public Key Algorithm: rsaEncryption
                Public-Key: (1024 bit)
                Modulus:
                    00:aa:9b:e7:87:26:eb:2b:c0:a6:c1:3e:0d:e7:69:
                    6a:41:d2:15:36:3a:f9:2f:64:74:ec:dc:07:89:83:
                    78:e6:eb:f9:fb:97:c0:9a:e7:36:e2:76:ad:6c:c5:
                    71:47:13:c6:de:8b:fc:74:70:03:33:60:34:22:8a:
                    30:db:73:8b:cd:77:1b:10:21:c4:c5:90:b3:80:d4:
                    7f:1a:c6:72:a6:fe:08:a9:08:21:7d:dc:eb:ee:53:
                    56:8a:d1:73:c1:af:9e:bb:48:53:cb:94:82:ee:62:
                    d6:1e:b2:26:62:a9:82:c9:90:39:16:6d:95:67:f7:
                    73:c7:79:8d:a1:9a:7c:96:2d
                Exponent: 65537 (0x10001)
        X509v3 extensions:
            X509v3 Basic Constraints: 
                CA:FALSE
            Netscape Cert Type: 
                SSL Client, SSL Server, S/MIME, Object Signing
            X509v3 Key Usage: 
                Digital Signature, Non Repudiation, Key Encipherment, Data Encipherment
            Netscape Comment: 
                Certificate generated by the EMITest CA1
            X509v3 Subject Key Identifier: 
                50:FD:B6:76:CA:B5:9C:09:C3:91:20:0A:FE:54:7A:11:67:59:B8:0C
            X509v3 Authority Key Identifier: 
                keyid:50:FD:B6:76:CA:B5:9C:09:C3:91:20:0A:FE:54:7A:11:67:59:B8:0C

    Signature Algorithm: sha1WithRSAEncryption
        3e:7b:8a:f4:5c:c6:a8:84:96:7a:7f:91:6b:05:68:5f:a8:5d:
        23:d3:19:c4:ae:ca:29:13:cd:ef:4b:e5:61:20:ae:d2:84:8e:
        76:7a:41:f6:8b:ce:4c:da:3c:3e:cd:de:c0:c6:a5:74:d4:64:
        f2:f4:a4:38:e4:68:36:71:75:7e:ec:91:00:8b:c8:96:33:4e:
        31:89:07:9e:fb:88:f0:e8:96:4b:0d:f2:32:c6:22:7d:c0:ab:
        5b:38:16:c7:08:ca:3f:28:1c:b4:7f:16:d1:62:f7:26:64:01:
        2e:6c:7c:a7:25:2f:63:24:e5:85:dc:2e:3c:e5:ea:cc:16:30:
        d3:36
-----BEGIN CERTIFICATE-----
MIICjDCCAfWgAwIBAgIBADANBgkqhkiG9w0BAQUFADA2MQswCQYDVQQGEwJFVTEQ
MA4GA1UEChMHRU1JVGVzdDEVMBMGA1UEAxMMVGhlIHJvb3QgQ0ExMCAXDTExMTEw
NTEyNTkxNFoYDzIxMTIwNDI5MTI1OTE0WjA2MQswCQYDVQQGEwJFVTEQMA4GA1UE
ChMHRU1JVGVzdDEVMBMGA1UEAxMMVGhlIHJvb3QgQ0ExMIGfMA0GCSqGSIb3DQEB
AQUAA4GNADCBiQKBgQCqm+eHJusrwKbBPg3naWpB0hU2OvkvZHTs3AeJg3jm6/n7
l8Ca5zbidq1sxXFHE8bei/x0cAMzYDQiijDbc4vNdxsQIcTFkLOA1H8axnKm/gip
CCF93OvuU1aK0XPBr567SFPLlILuYtYesiZiqYLJkDkWbZVn93PHeY2hmnyWLQID
AQABo4GnMIGkMAkGA1UdEwQCMAAwEQYJYIZIAYb4QgEBBAQDAgTwMAsGA1UdDwQE
AwIE8DA3BglghkgBhvhCAQ0EKhYoQ2VydGlmaWNhdGUgZ2VuZXJhdGVkIGJ5IHRo
ZSBFTUlUZXN0IENBMTAdBgNVHQ4EFgQUUP22dsq1nAnDkSAK/lR6EWdZuAwwHwYD
VR0jBBgwFoAUUP22dsq1nAnDkSAK/lR6EWdZuAwwDQYJKoZIhvcNAQEFBQADgYEA
PnuK9FzGqISWen+RawVoX6hdI9MZxK7KKRPN70vlYSCu0oSOdnpB9ovOTNo8Ps3e
wMaldNRk8vSkOORoNnF1fuyRAIvIljNOMYkHnvuI8OiWSw3yMsYifcCrWzgWxwjK
PygctH8W0WL3JmQBLmx8pyUvYyTlhdwuPOXqzBYw0zY=
-----END CERTIFICATE-----
