Certificate:
    Data:
        Version: 3 (0x2)
        Serial Number:
            b1:5b:63:6d:fc:45:43:1a
    Signature Algorithm: sha256WithRSAEncryption
        Issuer: C=EU, O=EMITest, CN=The root CA1
        Validity
            Not Before: Feb 20 22:16:11 2019 GMT
            Not After : Feb 17 22:16:11 2029 GMT
        Subject: C=EU, O=EMITest, CN=The root CA1
        Subject Public Key Info:
            Public Key Algorithm: rsaEncryption
                Public-Key: (2048 bit)
                Modulus:
                    00:cd:da:16:2a:b7:3f:a3:83:f8:13:19:74:52:e3:
                    de:14:50:3e:da:0f:e0:3e:ce:f5:8f:55:f5:78:07:
                    c3:e5:0a:5e:1f:8c:f5:8a:d9:6b:e0:e4:0e:db:cf:
                    03:27:9f:7b:54:5d:2f:a2:f4:6e:7d:18:37:76:10:
                    c4:5a:a1:ed:a5:da:b3:5e:9b:6b:8e:a0:0e:8b:f8:
                    b7:ec:f4:f7:24:a8:39:72:cd:16:40:a7:09:83:7b:
                    29:e7:7c:1d:d5:d1:be:ba:27:50:a0:64:90:c3:79:
                    aa:bb:f1:44:18:b9:b3:23:ed:fb:f5:71:0d:58:63:
                    ee:ff:16:2b:44:5c:cf:76:f6:14:ac:1e:6a:28:c5:
                    ff:10:fb:b6:39:b5:e5:33:0f:ca:be:3e:86:a5:b0:
                    d0:9b:fb:61:31:d9:35:2c:26:63:a1:7d:4f:ba:29:
                    ca:4d:c7:47:e1:25:1a:44:02:0f:8d:aa:d5:ee:59:
                    96:cb:a5:68:92:a2:77:10:65:b9:95:49:51:3f:2f:
                    47:8b:3b:71:ce:e7:08:0f:8e:27:32:a6:c0:58:e8:
                    60:c3:98:62:f1:b6:57:54:13:d0:2d:55:73:24:3c:
                    c5:c2:37:9b:cb:46:32:f1:2d:37:c4:26:17:ad:28:
                    57:8d:9c:d7:b9:a1:33:5e:1b:ef:e2:da:bb:a8:db:
                    bf:fb
                Exponent: 65537 (0x10001)
        X509v3 extensions:
            X509v3 Subject Key Identifier: 
                5E:A9:D0:F0:A6:17:64:AD:66:67:E5:1D:EC:E0:8E:D0:70:2C:76:68
            X509v3 Authority Key Identifier: 
                keyid:5E:A9:D0:F0:A6:17:64:AD:66:67:E5:1D:EC:E0:8E:D0:70:2C:76:68

            X509v3 Basic Constraints: 
                CA:TRUE
            X509v3 Key Usage: 
                Digital Signature, Non Repudiation, Certificate Sign, CRL Sign
            Netscape Cert Type: 
                SSL CA, S/MIME CA
    Signature Algorithm: sha256WithRSAEncryption
         8c:b2:31:ab:15:38:30:78:f0:e3:28:c1:fa:cc:07:4d:8d:a8:
         c7:35:dc:31:75:d1:d7:39:8d:1e:a7:72:6e:dd:e9:cd:a3:fa:
         59:db:27:a8:7a:d9:32:b9:fb:f2:3d:f9:3c:8e:db:cb:20:bb:
         4c:e5:80:0d:5a:35:63:09:64:01:b3:d2:f5:8a:40:d6:78:18:
         72:3d:f1:25:bb:c4:54:35:ac:54:42:41:a0:77:1b:64:50:92:
         b5:c5:ad:5b:1f:60:a4:79:b2:99:54:98:8c:8d:7b:ee:c7:b7:
         a2:ad:db:6b:b4:fd:05:67:a0:3b:8b:20:30:c1:9c:79:2e:84:
         44:a2:65:c3:3c:e0:ec:c3:b3:ee:a1:4a:4b:87:a3:35:b7:e4:
         4e:17:15:fe:19:6e:b5:ab:ed:fe:f9:25:1d:d4:8c:86:3d:5e:
         f5:68:3f:a8:f3:98:e3:bc:15:aa:90:18:6f:eb:e6:9e:bd:57:
         1d:45:d5:8c:9a:3b:76:c5:94:4d:49:51:fb:57:13:4b:b2:06:
         73:0e:9a:fa:9a:db:8e:72:a7:5b:80:39:c9:e4:f6:78:09:e9:
         50:5d:12:04:24:47:76:e3:79:db:f7:0b:44:68:08:3f:79:97:
         fe:ca:14:c2:01:ef:78:d4:fb:d3:63:c9:58:cd:ce:f6:ff:c1:
         6c:f5:5a:84
-----BEGIN CERTIFICATE-----
MIIDXzCCAkegAwIBAgIJALFbY238RUMaMA0GCSqGSIb3DQEBCwUAMDYxCzAJBgNV
BAYTAkVVMRAwDgYDVQQKDAdFTUlUZXN0MRUwEwYDVQQDDAxUaGUgcm9vdCBDQTEw
HhcNMTkwMjIwMjIxNjExWhcNMjkwMjE3MjIxNjExWjA2MQswCQYDVQQGEwJFVTEQ
MA4GA1UECgwHRU1JVGVzdDEVMBMGA1UEAwwMVGhlIHJvb3QgQ0ExMIIBIjANBgkq
hkiG9w0BAQEFAAOCAQ8AMIIBCgKCAQEAzdoWKrc/o4P4Exl0UuPeFFA+2g/gPs71
j1X1eAfD5QpeH4z1itlr4OQO288DJ597VF0vovRufRg3dhDEWqHtpdqzXptrjqAO
i/i37PT3JKg5cs0WQKcJg3sp53wd1dG+uidQoGSQw3mqu/FEGLmzI+379XENWGPu
/xYrRFzPdvYUrB5qKMX/EPu2ObXlMw/Kvj6GpbDQm/thMdk1LCZjoX1PuinKTcdH
4SUaRAIPjarV7lmWy6VokqJ3EGW5lUlRPy9HiztxzucID44nMqbAWOhgw5hi8bZX
VBPQLVVzJDzFwjeby0Yy8S03xCYXrShXjZzXuaEzXhvv4tq7qNu/+wIDAQABo3Aw
bjAdBgNVHQ4EFgQUXqnQ8KYXZK1mZ+Ud7OCO0HAsdmgwHwYDVR0jBBgwFoAUXqnQ
8KYXZK1mZ+Ud7OCO0HAsdmgwDAYDVR0TBAUwAwEB/zALBgNVHQ8EBAMCAcYwEQYJ
YIZIAYb4QgEBBAQDAgEGMA0GCSqGSIb3DQEBCwUAA4IBAQCMsjGrFTgwePDjKMH6
zAdNjajHNdwxddHXOY0ep3Ju3enNo/pZ2yeoetkyufvyPfk8jtvLILtM5YANWjVj
CWQBs9L1ikDWeBhyPfElu8RUNaxUQkGgdxtkUJK1xa1bH2CkebKZVJiMjXvux7ei
rdtrtP0FZ6A7iyAwwZx5LoREomXDPODsw7PuoUpLh6M1t+ROFxX+GW61q+3++SUd
1IyGPV71aD+o85jjvBWqkBhv6+aevVcdRdWMmjt2xZRNSVH7VxNLsgZzDpr6mtuO
cqdbgDnJ5PZ4CelQXRIEJEd243nb9wtEaAg/eZf+yhTCAe941PvTY8lYzc72/8Fs
9VqE
-----END CERTIFICATE-----
